

HI-TECH Software 8051 Macro Assembler V9.60                                Page 1
                                                       Thu Jun 09 13:44:38 2022

     1                           	psect	idata,class=DATA,space=1,limit=0100h
     2                           	psect	irdata,class=DATA,limit=0100h
     3                           	global	_main
     4                           	signat	_main,88
     5                           	global	stack_internal
     6                           	psect	text,class=CODE
     7                           	psect	text
     8                           	file	"D:\Other\Multisim11.0.2\Projects\Practica
                                 5new\Practica5new2\Practica5new\main.c"
     9                           	line	3
    10  00345                     _main:
    11  00345  02 1F4C            	j	f1591
    12  00348                     f1590:
    13                           ;main.c: 2: void main()
    14                           
    15                           ;main.c: 3: {
    16                           
    17                           ;	var   _result assigned to ?a_main+0
    18                           ;main.c: 4: char *result = "0     ";
    19                           
    20                           	line	4
    21  00348  75 20  03          	mov	?a_main+0,#high(0+u19)
    22  0034B  75 21  3E          	mov	?a_main+0+1,#low(0+u19)
    23                           ;	var   _a assigned to ?a_main+2
    24                           ;	var   _b assigned to ?a_main+4
    25                           ;	var   _flag assigned to ?a_main+6
    26                           ;main.c: 5: int a, b, flag;
    27                           
    28                           ;main.c: 6: P0 = 0x80; P2 = 0x1; P2 = 0x0;
    29                           
    30                           	line	6
    31  0034E  75 80 80           	mov	080h,#128
    32  00351  75 A0 01           	mov	0A0h,#1
    33  00354  75 A0 00           	mov	0A0h,#0
    34                           ;main.c: 7: while(1)
    35                           
    36                           	line	7
    37  00357                     l4:
    38                           ;main.c: 8: {
    39                           
    40                           ;main.c: 9: P10 = 0;
    41                           
    42                           	line	9
    43  00357  C2 90              	clr	p1.0
    44                           ;main.c: 10: if(P14 == 0){flag = 1; P0 = '+'; P2
                                  = 0x3; P2 = 0x2;}
    45                           
    46                           	line	10
    47  00359  20 94 02           	bb	p1.4, u11
    48  0035C  80 02              	jmp	u10
    49  0035E                     u11:
    50  0035E  80 0F              	jmp	l6
    51  00360                     u10:
    52  00360  75 26  00          	mov	?a_main+6,#high(1)
    53  00363  75 27  01          	mov	?a_main+6+1,#low(1)
    54  00366  75 80 2B           	mov	080h,#43
    55  00369  75 A0 03           	mov	0A0h,#3
    56  0036C  75 A0 02           	mov	0A0h,#2
    57  0036F                     l6:
    58                           ;main.c: 11: if(P15 == 0)
    59                           
    60                           	line	11
    61  0036F  20 95 02           	bb	p1.5, u21
    62  00372  80 02              	jmp	u20
    63  00374                     u21:
    64  00374  80 25              	jmp	l7
    65  00376                     u20:
    66                           ;main.c: 12: {
    67                           
    68                           ;main.c: 13: if(P0 == 0x80) {a = 9; P0 = '9'; P2
                                  = 0x3; P2 = 0x2; }
    69                           
    70                           	line	13
    71  00376  E5 80              	mov	a,080h
    72  00378  B4 80 11           	cbne	a,#(128),l8
    73  0037B  75 22  00          	mov	?a_main+2,#high(9)
    74  0037E  75 23  09          	mov	?a_main+2+1,#low(9)
    75  00381  75 80 39           	mov	080h,#57
    76  00384  75 A0 03           	mov	0A0h,#3
    77  00387  75 A0 02           	mov	0A0h,#2
    78  0038A  80 0F              	jmp	l9
    79                           	line	14
    80  0038C                     l8:
    81                           ;main.c: 14: else {b = 9; P0 = '9'; P2 = 0x3; P2
                                  = 0x2; }
    82                           
    83  0038C  75 24  00          	mov	?a_main+4,#high(9)
    84  0038F  75 25  09          	mov	?a_main+4+1,#low(9)
    85  00392  75 80 39           	mov	080h,#57
    86  00395  75 A0 03           	mov	0A0h,#3
    87  00398  75 A0 02           	mov	0A0h,#2
    88  0039B                     l9:
    89                           	line	15
    90  0039B                     l7:
    91                           ;main.c: 15: }
    92                           
    93                           ;main.c: 16: if(P16 == 0)
    94                           
    95                           	line	16
    96  0039B  20 96 02           	bb	p1.6, u31
    97  0039E  80 02              	jmp	u30
    98  003A0                     u31:
    99  003A0  80 25              	jmp	l10
   100  003A2                     u30:
   101                           ;main.c: 17: {
   102                           
   103                           ;main.c: 18: if(P0 == 0x80) {a = 8; P0 = '8'; P2
                                  = 0x3; P2 = 0x2; }
   104                           
   105                           	line	18
   106  003A2  E5 80              	mov	a,080h
   107  003A4  B4 80 11           	cbne	a,#(128),l11
   108  003A7  75 22  00          	mov	?a_main+2,#high(8)
   109  003AA  75 23  08          	mov	?a_main+2+1,#low(8)
   110  003AD  75 80 38           	mov	080h,#56
   111  003B0  75 A0 03           	mov	0A0h,#3
   112  003B3  75 A0 02           	mov	0A0h,#2
   113  003B6  80 0F              	jmp	l12
   114                           	line	19
   115  003B8                     l11:
   116                           ;main.c: 19: else {b = 8;P0 = '8'; P2 = 0x3; P2 
                                 = 0x2;
   117                           
   118  003B8  75 24  00          	mov	?a_main+4,#high(8)
   119  003BB  75 25  08          	mov	?a_main+4+1,#low(8)
   120  003BE  75 80 38           	mov	080h,#56
   121  003C1  75 A0 03           	mov	0A0h,#3
   122  003C4  75 A0 02           	mov	0A0h,#2
   123                           	line	20
   124  003C7                     l12:
   125                           	line	21
   126  003C7                     l10:
   127                           ;main.c: 20: }
   128                           
   129                           ;main.c: 21: }
   130                           
   131                           ;main.c: 22: if(P17 == 0)
   132                           
   133                           	line	22
   134  003C7  20 97 02           	bb	p1.7, u41
   135  003CA  80 02              	jmp	u40
   136  003CC                     u41:
   137  003CC  80 25              	jmp	l13
   138  003CE                     u40:
   139                           ;main.c: 23: {
   140                           
   141                           ;main.c: 24: if(P0 == 0x80) {a = 7; P0 = '7'; P2
                                  = 0x3; P2 = 0x2; }
   142                           
   143                           	line	24
   144  003CE  E5 80              	mov	a,080h
   145  003D0  B4 80 11           	cbne	a,#(128),l14
   146  003D3  75 22  00          	mov	?a_main+2,#high(7)
   147  003D6  75 23  07          	mov	?a_main+2+1,#low(7)
   148  003D9  75 80 37           	mov	080h,#55
   149  003DC  75 A0 03           	mov	0A0h,#3
   150  003DF  75 A0 02           	mov	0A0h,#2
   151  003E2  80 0F              	jmp	l15
   152                           	line	25
   153  003E4                     l14:
   154                           ;main.c: 25: else {b = 7; P0 = '7'; P2 = 0x3; P2
                                  = 0x2; }
   155                           
   156  003E4  75 24  00          	mov	?a_main+4,#high(7)
   157  003E7  75 25  07          	mov	?a_main+4+1,#low(7)
   158  003EA  75 80 37           	mov	080h,#55
   159  003ED  75 A0 03           	mov	0A0h,#3
   160  003F0  75 A0 02           	mov	0A0h,#2
   161  003F3                     l15:
   162                           	line	26
   163  003F3                     l13:
   164                           ;main.c: 26: }
   165                           
   166                           ;main.c: 27: P10 = 1;
   167                           
   168                           	line	27
   169  003F3  D2 90              	setb	p1.0
   170                           ;main.c: 28: P11 = 0;
   171                           
   172                           	line	28
   173  003F5  C2 91              	clr	p1.1
   174                           ;main.c: 29: if(P14 == 0){flag = 2; P0 = '-'; P2
                                  = 0x3; P2 = 0x2;}
   175                           
   176                           	line	29
   177  003F7  20 94 02           	bb	p1.4, u51
   178  003FA  80 02              	jmp	u50
   179  003FC                     u51:
   180  003FC  80 0F              	jmp	l16
   181  003FE                     u50:
   182  003FE  75 26  00          	mov	?a_main+6,#high(2)
   183  00401  75 27  02          	mov	?a_main+6+1,#low(2)
   184  00404  75 80 2D           	mov	080h,#45
   185  00407  75 A0 03           	mov	0A0h,#3
   186  0040A  75 A0 02           	mov	0A0h,#2
   187  0040D                     l16:
   188                           ;main.c: 30: if(P15 == 0)
   189                           
   190                           	line	30
   191  0040D  20 95 02           	bb	p1.5, u61
   192  00410  80 02              	jmp	u60
   193  00412                     u61:
   194  00412  80 25              	jmp	l17
   195  00414                     u60:
   196                           ;main.c: 31: {
   197                           
   198                           ;main.c: 32: if(P0 == 0x80) {a = 6; P0 = '6'; P2
                                  = 0x3; P2 = 0x2; }
   199                           
   200                           	line	32
   201  00414  E5 80              	mov	a,080h
   202  00416  B4 80 11           	cbne	a,#(128),l18
   203  00419  75 22  00          	mov	?a_main+2,#high(6)
   204  0041C  75 23  06          	mov	?a_main+2+1,#low(6)
   205  0041F  75 80 36           	mov	080h,#54
   206  00422  75 A0 03           	mov	0A0h,#3
   207  00425  75 A0 02           	mov	0A0h,#2
   208  00428  80 0F              	jmp	l19
   209                           	line	33
   210  0042A                     l18:
   211                           ;main.c: 33: else {b = 6; P0 = '6'; P2 = 0x3; P2
                                  = 0x2; }
   212                           
   213  0042A  75 24  00          	mov	?a_main+4,#high(6)
   214  0042D  75 25  06          	mov	?a_main+4+1,#low(6)
   215  00430  75 80 36           	mov	080h,#54
   216  00433  75 A0 03           	mov	0A0h,#3
   217  00436  75 A0 02           	mov	0A0h,#2
   218  00439                     l19:
   219                           	line	34
   220  00439                     l17:
   221                           ;main.c: 34: }
   222                           
   223                           ;main.c: 35: if(P16 == 0)
   224                           
   225                           	line	35
   226  00439  20 96 02           	bb	p1.6, u71
   227  0043C  80 02              	jmp	u70
   228  0043E                     u71:
   229  0043E  80 25              	jmp	l20
   230  00440                     u70:
   231                           ;main.c: 36: {
   232                           
   233                           ;main.c: 37: if(P0 == 0x80) {a = 5; P0 = '5'; P2
                                  = 0x3; P2 = 0x2; }
   234                           
   235                           	line	37
   236  00440  E5 80              	mov	a,080h
   237  00442  B4 80 11           	cbne	a,#(128),l21
   238  00445  75 22  00          	mov	?a_main+2,#high(5)
   239  00448  75 23  05          	mov	?a_main+2+1,#low(5)
   240  0044B  75 80 35           	mov	080h,#53
   241  0044E  75 A0 03           	mov	0A0h,#3
   242  00451  75 A0 02           	mov	0A0h,#2
   243  00454  80 0F              	jmp	l22
   244                           	line	38
   245  00456                     l21:
   246                           ;main.c: 38: else {b = 5; P0 = '5'; P2 = 0x3; P2
                                  = 0x2; }
   247                           
   248  00456  75 24  00          	mov	?a_main+4,#high(5)
   249  00459  75 25  05          	mov	?a_main+4+1,#low(5)
   250  0045C  75 80 35           	mov	080h,#53
   251  0045F  75 A0 03           	mov	0A0h,#3
   252  00462  75 A0 02           	mov	0A0h,#2
   253  00465                     l22:
   254                           	line	39
   255  00465                     l20:
   256                           ;main.c: 39: }
   257                           
   258                           ;main.c: 40: if(P17 == 0)
   259                           
   260                           	line	40
   261  00465  20 97 02           	bb	p1.7, u81
   262  00468  80 02              	jmp	u80
   263  0046A                     u81:
   264  0046A  80 25              	jmp	l23
   265  0046C                     u80:
   266                           ;main.c: 41: {
   267                           
   268                           ;main.c: 42: if(P0 == 0x80) {a = 4; P0 = '4'; P2
                                  = 0x3; P2 = 0x2; }
   269                           
   270                           	line	42
   271  0046C  E5 80              	mov	a,080h
   272  0046E  B4 80 11           	cbne	a,#(128),l24
   273  00471  75 22  00          	mov	?a_main+2,#high(4)
   274  00474  75 23  04          	mov	?a_main+2+1,#low(4)
   275  00477  75 80 34           	mov	080h,#52
   276  0047A  75 A0 03           	mov	0A0h,#3
   277  0047D  75 A0 02           	mov	0A0h,#2
   278  00480  80 0F              	jmp	l25
   279                           	line	43
   280  00482                     l24:
   281                           ;main.c: 43: else {b = 4; P0 = '4'; P2 = 0x3; P2
                                  = 0x2; }
   282                           
   283  00482  75 24  00          	mov	?a_main+4,#high(4)
   284  00485  75 25  04          	mov	?a_main+4+1,#low(4)
   285  00488  75 80 34           	mov	080h,#52
   286  0048B  75 A0 03           	mov	0A0h,#3
   287  0048E  75 A0 02           	mov	0A0h,#2
   288  00491                     l25:
   289                           	line	44
   290  00491                     l23:
   291                           ;main.c: 44: }
   292                           
   293                           ;main.c: 45: P11 = 1;
   294                           
   295                           	line	45
   296  00491  D2 91              	setb	p1.1
   297                           ;main.c: 46: P12 = 0;
   298                           
   299                           	line	46
   300  00493  C2 92              	clr	p1.2
   301                           ;main.c: 47: if(P14 == 0){flag = 3; P0 = '*'; P2
                                  = 0x3; P2 = 0x2;}
   302                           
   303                           	line	47
   304  00495  20 94 02           	bb	p1.4, u91
   305  00498  80 02              	jmp	u90
   306  0049A                     u91:
   307  0049A  80 0F              	jmp	l26
   308  0049C                     u90:
   309  0049C  75 26  00          	mov	?a_main+6,#high(3)
   310  0049F  75 27  03          	mov	?a_main+6+1,#low(3)
   311  004A2  75 80 2A           	mov	080h,#42
   312  004A5  75 A0 03           	mov	0A0h,#3
   313  004A8  75 A0 02           	mov	0A0h,#2
   314  004AB                     l26:
   315                           ;main.c: 48: if(P15 == 0)
   316                           
   317                           	line	48
   318  004AB  20 95 02           	bb	p1.5, u101
   319  004AE  80 02              	jmp	u100
   320  004B0                     u101:
   321  004B0  80 25              	jmp	l27
   322  004B2                     u100:
   323                           ;main.c: 49: {
   324                           
   325                           ;main.c: 50: if(P0 == 0x80) {a = 3; P0 = '3'; P2
                                  = 0x3; P2 = 0x2; }
   326                           
   327                           	line	50
   328  004B2  E5 80              	mov	a,080h
   329  004B4  B4 80 11           	cbne	a,#(128),l28
   330  004B7  75 22  00          	mov	?a_main+2,#high(3)
   331  004BA  75 23  03          	mov	?a_main+2+1,#low(3)
   332  004BD  75 80 33           	mov	080h,#51
   333  004C0  75 A0 03           	mov	0A0h,#3
   334  004C3  75 A0 02           	mov	0A0h,#2
   335  004C6  80 0F              	jmp	l29
   336                           	line	51
   337  004C8                     l28:
   338                           ;main.c: 51: else {b = 3; P0 = '3'; P2 = 0x3; P2
                                  = 0x2; }
   339                           
   340  004C8  75 24  00          	mov	?a_main+4,#high(3)
   341  004CB  75 25  03          	mov	?a_main+4+1,#low(3)
   342  004CE  75 80 33           	mov	080h,#51
   343  004D1  75 A0 03           	mov	0A0h,#3
   344  004D4  75 A0 02           	mov	0A0h,#2
   345  004D7                     l29:
   346                           	line	52
   347  004D7                     l27:
   348                           ;main.c: 52: }
   349                           
   350                           ;main.c: 53: if(P16 == 0)
   351                           
   352                           	line	53
   353  004D7  20 96 02           	bb	p1.6, u111
   354  004DA  80 02              	jmp	u110
   355  004DC                     u111:
   356  004DC  80 25              	jmp	l30
   357  004DE                     u110:
   358                           ;main.c: 54: {
   359                           
   360                           ;main.c: 55: if(P0 == 0x80) {a = 2; P0 = '2'; P2
                                  = 0x3; P2 = 0x2; }
   361                           
   362                           	line	55
   363  004DE  E5 80              	mov	a,080h
   364  004E0  B4 80 11           	cbne	a,#(128),l31
   365  004E3  75 22  00          	mov	?a_main+2,#high(2)
   366  004E6  75 23  02          	mov	?a_main+2+1,#low(2)
   367  004E9  75 80 32           	mov	080h,#50
   368  004EC  75 A0 03           	mov	0A0h,#3
   369  004EF  75 A0 02           	mov	0A0h,#2
   370  004F2  80 0F              	jmp	l32
   371                           	line	56
   372  004F4                     l31:
   373                           ;main.c: 56: else {b = 2; P0 = '2'; P2 = 0x3; P2
                                  = 0x2; }
   374                           
   375  004F4  75 24  00          	mov	?a_main+4,#high(2)
   376  004F7  75 25  02          	mov	?a_main+4+1,#low(2)
   377  004FA  75 80 32           	mov	080h,#50
   378  004FD  75 A0 03           	mov	0A0h,#3
   379  00500  75 A0 02           	mov	0A0h,#2
   380  00503                     l32:
   381                           	line	57
   382  00503                     l30:
   383                           ;main.c: 57: }
   384                           
   385                           ;main.c: 58: if(P17 == 0)
   386                           
   387                           	line	58
   388  00503  20 97 02           	bb	p1.7, u121
   389  00506  80 02              	jmp	u120
   390  00508                     u121:
   391  00508  80 25              	jmp	l33
   392  0050A                     u120:
   393                           ;main.c: 59: {
   394                           
   395                           ;main.c: 60: if(P0 == 0x80) {a = 1; P0 = '1'; P2
                                  = 0x3; P2 = 0x2; }
   396                           
   397                           	line	60
   398  0050A  E5 80              	mov	a,080h
   399  0050C  B4 80 11           	cbne	a,#(128),l34
   400  0050F  75 22  00          	mov	?a_main+2,#high(1)
   401  00512  75 23  01          	mov	?a_main+2+1,#low(1)
   402  00515  75 80 31           	mov	080h,#49
   403  00518  75 A0 03           	mov	0A0h,#3
   404  0051B  75 A0 02           	mov	0A0h,#2
   405  0051E  80 0F              	jmp	l35
   406                           	line	61
   407  00520                     l34:
   408                           ;main.c: 61: else {b = 1; P0 = '1'; P2 = 0x3; P2
                                  = 0x2; }
   409                           
   410  00520  75 24  00          	mov	?a_main+4,#high(1)
   411  00523  75 25  01          	mov	?a_main+4+1,#low(1)
   412  00526  75 80 31           	mov	080h,#49
   413  00529  75 A0 03           	mov	0A0h,#3
   414  0052C  75 A0 02           	mov	0A0h,#2
   415  0052F                     l35:
   416                           	line	62
   417  0052F                     l33:
   418                           ;main.c: 62: }
   419                           
   420                           ;main.c: 63: P12 = 1;
   421                           
   422                           	line	63
   423  0052F  D2 92              	setb	p1.2
   424                           ;main.c: 64: P13 = 0;
   425                           
   426                           	line	64
   427  00531  C2 93              	clr	p1.3
   428                           ;main.c: 65: if(P14 == 0){flag = 4; P0 = '/'; P2
                                  = 0x3; P2 = 0x2;}
   429                           
   430                           	line	65
   431  00533  20 94 02           	bb	p1.4, u131
   432  00536  80 02              	jmp	u130
   433  00538                     u131:
   434  00538  80 0F              	jmp	l36
   435  0053A                     u130:
   436  0053A  75 26  00          	mov	?a_main+6,#high(4)
   437  0053D  75 27  04          	mov	?a_main+6+1,#low(4)
   438  00540  75 80 2F           	mov	080h,#47
   439  00543  75 A0 03           	mov	0A0h,#3
   440  00546  75 A0 02           	mov	0A0h,#2
   441  00549                     l36:
   442                           ;main.c: 66: if(P15 == 0)
   443                           
   444                           	line	66
   445  00549  20 95 02           	bb	p1.5, u141
   446  0054C  80 02              	jmp	u140
   447  0054E                     u141:
   448  0054E  80 7E              	jmp	l37
   449  00550                     u140:
   450                           ;main.c: 67: {
   451                           
   452                           ;main.c: 68: P0 = 0x1; P2 = 0x1; P2 = 0x0;
   453                           
   454                           	line	68
   455  00550  75 80 01           	mov	080h,#1
   456  00553  75 A0 01           	mov	0A0h,#1
   457  00556  75 A0 00           	mov	0A0h,#0
   458                           ;main.c: 69: P0 = result[0]; P2 = 0x3; P2 = 0x2;
   459                           
   460                           	line	69
   461  00559  85 20  83          	mov	dph,?a_main+0
   462  0055C  85 21  82          	mov	dpl,?a_main+0+1
   463                           	global	ldc_byte
   464  0055F  12 0003            	call	ldc_byte
   465  00562  F5 80              	mov	080h,a
   466  00564  75 A0 03           	mov	0A0h,#3
   467  00567  75 A0 02           	mov	0A0h,#2
   468                           ;main.c: 70: P0 = result[1]; P2 = 0x3; P2 = 0x2;
   469                           
   470                           	line	70
   471  0056A  85 20  83          	mov	dph,?a_main+0
   472  0056D  85 21  82          	mov	dpl,?a_main+0+1
   473  00570  A3                 	inc	dptr
   474                           	global	ldc_byte
   475  00571  12 0003            	call	ldc_byte
   476  00574  F5 80              	mov	080h,a
   477  00576  75 A0 03           	mov	0A0h,#3
   478  00579  75 A0 02           	mov	0A0h,#2
   479                           ;main.c: 71: P0 = result[2]; P2 = 0x3; P2 = 0x2;
   480                           
   481                           	line	71
   482  0057C  85 20  83          	mov	dph,?a_main+0
   483  0057F  85 21  82          	mov	dpl,?a_main+0+1
   484  00582  A3                 	inc	dptr
   485  00583  A3                 	inc	dptr
   486                           	global	ldc_byte
   487  00584  12 0003            	call	ldc_byte
   488  00587  F5 80              	mov	080h,a
   489  00589  75 A0 03           	mov	0A0h,#3
   490  0058C  75 A0 02           	mov	0A0h,#2
   491                           ;main.c: 72: P0 = result[3]; P2 = 0x3; P2 = 0x2;
   492                           
   493                           	line	72
   494  0058F  85 20  83          	mov	dph,?a_main+0
   495  00592  85 21  82          	mov	dpl,?a_main+0+1
   496  00595  A3                 	inc	dptr
   497  00596  A3                 	inc	dptr
   498  00597  A3                 	inc	dptr
   499                           	global	ldc_byte
   500  00598  12 0003            	call	ldc_byte
   501  0059B  F5 80              	mov	080h,a
   502  0059D  75 A0 03           	mov	0A0h,#3
   503  005A0  75 A0 02           	mov	0A0h,#2
   504                           ;main.c: 73: P0 = result[4]; P2 = 0x3; P2 = 0x2;
   505                           
   506                           	line	73
   507  005A3  85 20  83          	mov	dph,?a_main+0
   508  005A6  85 21  82          	mov	dpl,?a_main+0+1
   509  005A9  A3                 	inc	dptr
   510  005AA  A3                 	inc	dptr
   511  005AB  A3                 	inc	dptr
   512  005AC  A3                 	inc	dptr
   513                           	global	ldc_byte
   514  005AD  12 0003            	call	ldc_byte
   515  005B0  F5 80              	mov	080h,a
   516  005B2  75 A0 03           	mov	0A0h,#3
   517  005B5  75 A0 02           	mov	0A0h,#2
   518                           ;main.c: 74: P0 = result[5]; P2 = 0x3; P2 = 0x2;
   519                           
   520                           	line	74
   521  005B8  85 20  83          	mov	dph,?a_main+0
   522  005BB  85 21  82          	mov	dpl,?a_main+0+1
   523  005BE  A3                 	inc	dptr
   524  005BF  A3                 	inc	dptr
   525  005C0  A3                 	inc	dptr
   526  005C1  A3                 	inc	dptr
   527  005C2  A3                 	inc	dptr
   528                           	global	ldc_byte
   529  005C3  12 0003            	call	ldc_byte
   530  005C6  F5 80              	mov	080h,a
   531  005C8  75 A0 03           	mov	0A0h,#3
   532  005CB  75 A0 02           	mov	0A0h,#2
   533                           	line	75
   534  005CE                     l37:
   535                           ;main.c: 75: }
   536                           
   537                           ;main.c: 76: if(P16 == 0)
   538                           
   539                           	line	76
   540  005CE  20 96 02           	bb	p1.6, u151
   541  005D1  80 02              	jmp	u150
   542  005D3                     u151:
   543  005D3  80 23              	jmp	l38
   544  005D5                     u150:
   545                           ;main.c: 77: {
   546                           
   547                           ;main.c: 78: if(P0 == 0x80) {a = 0; P0 = '0'; P2
                                  = 0x3; P2 = 0x2; }
   548                           
   549                           	line	78
   550  005D5  E5 80              	mov	a,080h
   551  005D7  B4 80 10           	cbne	a,#(128),l39
   552  005DA  E4                 	clr	a
   553  005DB  F5 22              	mov	?a_main+2,a
   554  005DD  F5 23              	mov	?a_main+2+1,a
   555  005DF  75 80 30           	mov	080h,#48
   556  005E2  75 A0 03           	mov	0A0h,#3
   557  005E5  75 A0 02           	mov	0A0h,#2
   558  005E8  80 0E              	jmp	l40
   559                           	line	79
   560  005EA                     l39:
   561                           ;main.c: 79: else {b = 0; P0 = '0'; P2 = 0x3; P2
                                  = 0x2; }
   562                           
   563  005EA  E4                 	clr	a
   564  005EB  F5 24              	mov	?a_main+4,a
   565  005ED  F5 25              	mov	?a_main+4+1,a
   566  005EF  75 80 30           	mov	080h,#48
   567  005F2  75 A0 03           	mov	0A0h,#3
   568  005F5  75 A0 02           	mov	0A0h,#2
   569  005F8                     l40:
   570                           	line	80
   571  005F8                     l38:
   572                           ;main.c: 80: }
   573                           
   574                           ;main.c: 81: if(P17 == 0)
   575                           
   576                           	line	81
   577  005F8  20 97 02           	bb	p1.7, u161
   578  005FB  80 02              	jmp	u160
   579  005FD                     u161:
   580  005FD  80 27              	jmp	l41
   581  005FF                     u160:
   582                           ;main.c: 82: {
   583                           
   584                           ;main.c: 83: P0 = 0x1; P2 = 0x1; P2 = 0x0;
   585                           
   586                           	line	83
   587  005FF  75 80 01           	mov	080h,#1
   588  00602  75 A0 01           	mov	0A0h,#1
   589  00605  75 A0 00           	mov	0A0h,#0
   590                           ;main.c: 84: P0 = 0x80;P2 = 0x1;P2 = 0x0;
   591                           
   592                           	line	84
   593  00608  75 80 80           	mov	080h,#128
   594  0060B  75 A0 01           	mov	0A0h,#1
   595  0060E  75 A0 00           	mov	0A0h,#0
   596                           ;main.c: 85: result = "0     "; a = 0; b = 0; fl
                                 ag = 0;
   597                           
   598                           	line	85
   599  00611  75 20  03          	mov	?a_main+0,#high(0+u29)
   600  00614  75 21  3E          	mov	?a_main+0+1,#low(0+u29)
   601  00617  E4                 	clr	a
   602  00618  F5 22              	mov	?a_main+2,a
   603  0061A  F5 23              	mov	?a_main+2+1,a
   604  0061C  E4                 	clr	a
   605  0061D  F5 24              	mov	?a_main+4,a
   606  0061F  F5 25              	mov	?a_main+4+1,a
   607  00621  E4                 	clr	a
   608  00622  F5 26              	mov	?a_main+6,a
   609  00624  F5 27              	mov	?a_main+6+1,a
   610                           	line	86
   611  00626                     l41:
   612                           ;main.c: 86: }
   613                           
   614                           ;main.c: 87: P13 = 1;
   615                           
   616                           	line	87
   617  00626  D2 93              	setb	p1.3
   618                           ;main.c: 88: if(flag == 1)
   619                           
   620                           	line	88
   621  00628  E5 27              	mov	a,?a_main+6+1
   622  0062A  B4 01 07           	cbne	a,#low (1),u171
   623  0062D  E5 26              	mov	a,?a_main+6
   624  0062F  B4 00 02           	cbne	a,#high (1),u171
   625  00632  80 03              	jmp	u170
   626  00634                     u171:
   627  00634  02 0CCB            	jmp	l42
   628  00637                     u170:
   629                           ;main.c: 89: {
   630                           
   631                           ;main.c: 90: if(a == 0)
   632                           
   633                           	line	90
   634  00637  E5 23              	mov	a,?a_main+2+1
   635  00639  45 22              	orl	a,?a_main+2
   636  0063B  70 02              	bnz	u181
   637  0063D  80 03              	jmp	u180
   638  0063F                     u181:
   639  0063F  02 0706            	jmp	l43
   640  00642                     u180:
   641                           ;main.c: 91: {
   642                           
   643                           ;main.c: 92: if (b == 0) result = "0     "; if (
                                 b == 1) result = "1     "; if (b == 2) result = 
                                 "2     ";
   644                           
   645                           	line	92
   646  00642  E5 25              	mov	a,?a_main+4+1
   647  00644  45 24              	orl	a,?a_main+4
   648  00646  70 02              	bnz	u191
   649  00648  80 02              	jmp	u190
   650  0064A                     u191:
   651  0064A  80 06              	jmp	l44
   652  0064C                     u190:
   653  0064C  75 20  03          	mov	?a_main+0,#high(0+u39)
   654  0064F  75 21  3E          	mov	?a_main+0+1,#low(0+u39)
   655  00652                     l44:
   656  00652  E5 25              	mov	a,?a_main+4+1
   657  00654  B4 01 07           	cbne	a,#low (1),u201
   658  00657  E5 24              	mov	a,?a_main+4
   659  00659  B4 00 02           	cbne	a,#high (1),u201
   660  0065C  80 02              	jmp	u200
   661  0065E                     u201:
   662  0065E  80 06              	jmp	l45
   663  00660                     u200:
   664  00660  75 20  03          	mov	?a_main+0,#high(0+u49)
   665  00663  75 21  37          	mov	?a_main+0+1,#low(0+u49)
   666  00666                     l45:
   667  00666  E5 25              	mov	a,?a_main+4+1
   668  00668  B4 02 07           	cbne	a,#low (2),u211
   669  0066B  E5 24              	mov	a,?a_main+4
   670  0066D  B4 00 02           	cbne	a,#high (2),u211
   671  00670  80 02              	jmp	u210
   672  00672                     u211:
   673  00672  80 06              	jmp	l46
   674  00674                     u210:
   675  00674  75 20  03          	mov	?a_main+0,#high(0+u59)
   676  00677  75 21  30          	mov	?a_main+0+1,#low(0+u59)
   677  0067A                     l46:
   678                           ;main.c: 93: if (b == 3) result = "3     "; if (
                                 b == 4) result = "4     "; if (b == 5) result = 
                                 "5     ";
   679                           
   680                           	line	93
   681  0067A  E5 25              	mov	a,?a_main+4+1
   682  0067C  B4 03 07           	cbne	a,#low (3),u221
   683  0067F  E5 24              	mov	a,?a_main+4
   684  00681  B4 00 02           	cbne	a,#high (3),u221
   685  00684  80 02              	jmp	u220
   686  00686                     u221:
   687+ 00686  80 06              	jmp	l47
   688+ 00688                     u220:
   689  00688  75 20  03          	mov	?a_main+0,#high(0+u69)
   690  0068B  75 21  29          	mov	?a_main+0+1,#low(0+u69)
   691  0068E                     l47:
   692  0068E  E5 25              	mov	a,?a_main+4+1
   693  00690  B4 04 07           	cbne	a,#low (4),u231
   694  00693  E5 24              	mov	a,?a_main+4
   695  00695  B4 00 02           	cbne	a,#high (4),u231
   696  00698  80 02              	jmp	u230
   697  0069A                     u231:
   698  0069A  80 06              	jmp	l48
   699  0069C                     u230:
   700  0069C  75 20  03          	mov	?a_main+0,#high(0+u79)
   701  0069F  75 21  22          	mov	?a_main+0+1,#low(0+u79)
   702  006A2                     l48:
   703  006A2  E5 25              	mov	a,?a_main+4+1
   704  006A4  B4 05 07           	cbne	a,#low (5),u241
   705  006A7  E5 24              	mov	a,?a_main+4
   706  006A9  B4 00 02           	cbne	a,#high (5),u241
   707  006AC  80 02              	jmp	u240
   708  006AE                     u241:
   709  006AE  80 06              	jmp	l49
   710  006B0                     u240:
   711  006B0  75 20  03          	mov	?a_main+0,#high(0+u89)
   712  006B3  75 21  1B          	mov	?a_main+0+1,#low(0+u89)
   713  006B6                     l49:
   714                           ;main.c: 94: if (b == 6) result = "6     "; if (
                                 b == 7) result = "7     "; if (b == 8) result = 
                                 "8     ";
   715                           
   716                           	line	94
   717  006B6  E5 25              	mov	a,?a_main+4+1
   718  006B8  B4 06 07           	cbne	a,#low (6),u251
   719  006BB  E5 24              	mov	a,?a_main+4
   720  006BD  B4 00 02           	cbne	a,#high (6),u251
   721  006C0  80 02              	jmp	u250
   722  006C2                     u251:
   723  006C2  80 06              	jmp	l50
   724  006C4                     u250:
   725  006C4  75 20  03          	mov	?a_main+0,#high(0+u99)
   726  006C7  75 21  14          	mov	?a_main+0+1,#low(0+u99)
   727  006CA                     l50:
   728  006CA  E5 25              	mov	a,?a_main+4+1
   729  006CC  B4 07 07           	cbne	a,#low (7),u261
   730  006CF  E5 24              	mov	a,?a_main+4
   731  006D1  B4 00 02           	cbne	a,#high (7),u261
   732  006D4  80 02              	jmp	u260
   733  006D6                     u261:
   734  006D6  80 06              	jmp	l51
   735  006D8                     u260:
   736  006D8  75 20  03          	mov	?a_main+0,#high(0+u109)
   737  006DB  75 21  0D          	mov	?a_main+0+1,#low(0+u109)
   738  006DE                     l51:
   739  006DE  E5 25              	mov	a,?a_main+4+1
   740  006E0  B4 08 07           	cbne	a,#low (8),u271
   741  006E3  E5 24              	mov	a,?a_main+4
   742  006E5  B4 00 02           	cbne	a,#high (8),u271
   743  006E8  80 02              	jmp	u270
   744  006EA                     u271:
   745  006EA  80 06              	jmp	l52
   746  006EC                     u270:
   747  006EC  75 20  03          	mov	?a_main+0,#high(0+u119)
   748  006EF  75 21  06          	mov	?a_main+0+1,#low(0+u119)
   749  006F2                     l52:
   750                           ;main.c: 95: if (b == 9) result = "9     ";
   751                           
   752                           	line	95
   753  006F2  E5 25              	mov	a,?a_main+4+1
   754  006F4  B4 09 07           	cbne	a,#low (9),u281
   755  006F7  E5 24              	mov	a,?a_main+4
   756  006F9  B4 00 02           	cbne	a,#high (9),u281
   757  006FC  80 02              	jmp	u280
   758  006FE                     u281:
   759  006FE  80 06              	jmp	l53
   760  00700                     u280:
   761  00700  75 20  02          	mov	?a_main+0,#high(0+u129)
   762  00703  75 21  FF          	mov	?a_main+0+1,#low(0+u129)
   763  00706                     l53:
   764                           	line	96
   765  00706                     l43:
   766                           ;main.c: 96: }
   767                           
   768                           ;main.c: 97: if(a == 1)
   769                           
   770                           	line	97
   771  00706  E5 23              	mov	a,?a_main+2+1
   772  00708  B4 01 07           	cbne	a,#low (1),u291
   773  0070B  E5 22              	mov	a,?a_main+2
   774  0070D  B4 00 02           	cbne	a,#high (1),u291
   775  00710  80 03              	jmp	u290
   776  00712                     u291:
   777  00712  02 07D9            	jmp	l54
   778  00715                     u290:
   779                           ;main.c: 98: {
   780                           
   781                           ;main.c: 99: if (b == 0) result = "1     "; if (
                                 b == 1) result = "2     "; if (b == 2) result = 
                                 "3     ";
   782                           
   783                           	line	99
   784  00715  E5 25              	mov	a,?a_main+4+1
   785  00717  45 24              	orl	a,?a_main+4
   786  00719  70 02              	bnz	u301
   787  0071B  80 02              	jmp	u300
   788  0071D                     u301:
   789  0071D  80 06              	jmp	l55
   790  0071F                     u300:
   791  0071F  75 20  03          	mov	?a_main+0,#high(0+u139)
   792  00722  75 21  37          	mov	?a_main+0+1,#low(0+u139)
   793  00725                     l55:
   794  00725  E5 25              	mov	a,?a_main+4+1
   795  00727  B4 01 07           	cbne	a,#low (1),u311
   796  0072A  E5 24              	mov	a,?a_main+4
   797  0072C  B4 00 02           	cbne	a,#high (1),u311
   798  0072F  80 02              	jmp	u310
   799  00731                     u311:
   800  00731  80 06              	jmp	l56
   801  00733                     u310:
   802  00733  75 20  03          	mov	?a_main+0,#high(0+u149)
   803  00736  75 21  30          	mov	?a_main+0+1,#low(0+u149)
   804  00739                     l56:
   805  00739  E5 25              	mov	a,?a_main+4+1
   806  0073B  B4 02 07           	cbne	a,#low (2),u321
   807  0073E  E5 24              	mov	a,?a_main+4
   808  00740  B4 00 02           	cbne	a,#high (2),u321
   809  00743  80 02              	jmp	u320
   810  00745                     u321:
   811  00745  80 06              	jmp	l57
   812  00747                     u320:
   813  00747  75 20  03          	mov	?a_main+0,#high(0+u159)
   814  0074A  75 21  29          	mov	?a_main+0+1,#low(0+u159)
   815  0074D                     l57:
   816                           ;main.c: 100: if (b == 3) result = "4     "; if 
                                 (b == 4) result = "5     "; if (b == 5) result =
                                  "6     ";
   817                           
   818                           	line	100
   819  0074D  E5 25              	mov	a,?a_main+4+1
   820  0074F  B4 03 07           	cbne	a,#low (3),u331
   821  00752  E5 24              	mov	a,?a_main+4
   822  00754  B4 00 02           	cbne	a,#high (3),u331
   823  00757  80 02              	jmp	u330
   824  00759                     u331:
   825  00759  80 06              	jmp	l58
   826  0075B                     u330:
   827  0075B  75 20  03          	mov	?a_main+0,#high(0+u169)
   828  0075E  75 21  22          	mov	?a_main+0+1,#low(0+u169)
   829  00761                     l58:
   830  00761  E5 25              	mov	a,?a_main+4+1
   831  00763  B4 04 07           	cbne	a,#low (4),u341
   832  00766  E5 24              	mov	a,?a_main+4
   833  00768  B4 00 02           	cbne	a,#high (4),u341
   834  0076B  80 02              	jmp	u340
   835  0076D                     u341:
   836  0076D  80 06              	jmp	l59
   837  0076F                     u340:
   838  0076F  75 20  03          	mov	?a_main+0,#high(0+u179)
   839  00772  75 21  1B          	mov	?a_main+0+1,#low(0+u179)
   840  00775                     l59:
   841  00775  E5 25              	mov	a,?a_main+4+1
   842  00777  B4 05 07           	cbne	a,#low (5),u351
   843  0077A  E5 24              	mov	a,?a_main+4
   844  0077C  B4 00 02           	cbne	a,#high (5),u351
   845  0077F  80 02              	jmp	u350
   846  00781                     u351:
   847  00781  80 06              	jmp	l60
   848  00783                     u350:
   849  00783  75 20  03          	mov	?a_main+0,#high(0+u189)
   850  00786  75 21  14          	mov	?a_main+0+1,#low(0+u189)
   851  00789                     l60:
   852                           ;main.c: 101: if (b == 6) result = "7     "; if 
                                 (b == 7) result = "8     "; if (b == 8) result =
                                  "9     ";
   853                           
   854                           	line	101
   855  00789  E5 25              	mov	a,?a_main+4+1
   856  0078B  B4 06 07           	cbne	a,#low (6),u361
   857  0078E  E5 24              	mov	a,?a_main+4
   858  00790  B4 00 02           	cbne	a,#high (6),u361
   859  00793  80 02              	jmp	u360
   860  00795                     u361:
   861  00795  80 06              	jmp	l61
   862  00797                     u360:
   863  00797  75 20  03          	mov	?a_main+0,#high(0+u199)
   864  0079A  75 21  0D          	mov	?a_main+0+1,#low(0+u199)
   865  0079D                     l61:
   866  0079D  E5 25              	mov	a,?a_main+4+1
   867  0079F  B4 07 07           	cbne	a,#low (7),u371
   868  007A2  E5 24              	mov	a,?a_main+4
   869  007A4  B4 00 02           	cbne	a,#high (7),u371
   870  007A7  80 02              	jmp	u370
   871  007A9                     u371:
   872  007A9  80 06              	jmp	l62
   873  007AB                     u370:
   874  007AB  75 20  03          	mov	?a_main+0,#high(0+u209)
   875  007AE  75 21  06          	mov	?a_main+0+1,#low(0+u209)
   876  007B1                     l62:
   877  007B1  E5 25              	mov	a,?a_main+4+1
   878  007B3  B4 08 07           	cbne	a,#low (8),u381
   879  007B6  E5 24              	mov	a,?a_main+4
   880  007B8  B4 00 02           	cbne	a,#high (8),u381
   881  007BB  80 02              	jmp	u380
   882  007BD                     u381:
   883  007BD  80 06              	jmp	l63
   884  007BF                     u380:
   885  007BF  75 20  02          	mov	?a_main+0,#high(0+u219)
   886  007C2  75 21  FF          	mov	?a_main+0+1,#low(0+u219)
   887  007C5                     l63:
   888                           ;main.c: 102: if (b == 9) result = "10    ";
   889                           
   890                           	line	102
   891  007C5  E5 25              	mov	a,?a_main+4+1
   892  007C7  B4 09 07           	cbne	a,#low (9),u391
   893  007CA  E5 24              	mov	a,?a_main+4
   894  007CC  B4 00 02           	cbne	a,#high (9),u391
   895  007CF  80 02              	jmp	u390
   896  007D1                     u391:
   897  007D1  80 06              	jmp	l64
   898  007D3                     u390:
   899  007D3  75 20  02          	mov	?a_main+0,#high(0+u229)
   900  007D6  75 21  F8          	mov	?a_main+0+1,#low(0+u229)
   901  007D9                     l64:
   902                           	line	103
   903  007D9                     l54:
   904                           ;main.c: 103: }
   905                           
   906                           ;main.c: 104: if(a == 2)
   907                           
   908                           	line	104
   909  007D9  E5 23              	mov	a,?a_main+2+1
   910  007DB  B4 02 07           	cbne	a,#low (2),u401
   911  007DE  E5 22              	mov	a,?a_main+2
   912  007E0  B4 00 02           	cbne	a,#high (2),u401
   913  007E3  80 03              	jmp	u400
   914  007E5                     u401:
   915  007E5  02 08AC            	jmp	l65
   916  007E8                     u400:
   917                           ;main.c: 105: {
   918                           
   919                           ;main.c: 106: if (b == 0) result = "2     "; if 
                                 (b == 1) result = "3     "; if (b == 2) result =
                                  "4     ";
   920                           
   921                           	line	106
   922  007E8  E5 25              	mov	a,?a_main+4+1
   923  007EA  45 24              	orl	a,?a_main+4
   924  007EC  70 02              	bnz	u411
   925  007EE  80 02              	jmp	u410
   926  007F0                     u411:
   927  007F0  80 06              	jmp	l66
   928  007F2                     u410:
   929  007F2  75 20  03          	mov	?a_main+0,#high(0+u239)
   930  007F5  75 21  30          	mov	?a_main+0+1,#low(0+u239)
   931  007F8                     l66:
   932  007F8  E5 25              	mov	a,?a_main+4+1
   933  007FA  B4 01 07           	cbne	a,#low (1),u421
   934  007FD  E5 24              	mov	a,?a_main+4
   935  007FF  B4 00 02           	cbne	a,#high (1),u421
   936  00802  80 02              	jmp	u420
   937  00804                     u421:
   938  00804  80 06              	jmp	l67
   939  00806                     u420:
   940  00806  75 20  03          	mov	?a_main+0,#high(0+u249)
   941  00809  75 21  29          	mov	?a_main+0+1,#low(0+u249)
   942  0080C                     l67:
   943  0080C  E5 25              	mov	a,?a_main+4+1
   944  0080E  B4 02 07           	cbne	a,#low (2),u431
   945  00811  E5 24              	mov	a,?a_main+4
   946  00813  B4 00 02           	cbne	a,#high (2),u431
   947  00816  80 02              	jmp	u430
   948  00818                     u431:
   949  00818  80 06              	jmp	l68
   950  0081A                     u430:
   951  0081A  75 20  03          	mov	?a_main+0,#high(0+u259)
   952  0081D  75 21  22          	mov	?a_main+0+1,#low(0+u259)
   953  00820                     l68:
   954                           ;main.c: 107: if (b == 3) result = "5     "; if 
                                 (b == 4) result = "6     "; if (b == 5) result =
                                  "7     ";
   955                           
   956                           	line	107
   957  00820  E5 25              	mov	a,?a_main+4+1
   958  00822  B4 03 07           	cbne	a,#low (3),u441
   959  00825  E5 24              	mov	a,?a_main+4
   960  00827  B4 00 02           	cbne	a,#high (3),u441
   961  0082A  80 02              	jmp	u440
   962  0082C                     u441:
   963  0082C  80 06              	jmp	l69
   964  0082E                     u440:
   965  0082E  75 20  03          	mov	?a_main+0,#high(0+u269)
   966  00831  75 21  1B          	mov	?a_main+0+1,#low(0+u269)
   967  00834                     l69:
   968  00834  E5 25              	mov	a,?a_main+4+1
   969  00836  B4 04 07           	cbne	a,#low (4),u451
   970  00839  E5 24              	mov	a,?a_main+4
   971  0083B  B4 00 02           	cbne	a,#high (4),u451
   972  0083E  80 02              	jmp	u450
   973  00840                     u451:
   974  00840  80 06              	jmp	l70
   975  00842                     u450:
   976  00842  75 20  03          	mov	?a_main+0,#high(0+u279)
   977  00845  75 21  14          	mov	?a_main+0+1,#low(0+u279)
   978  00848                     l70:
   979  00848  E5 25              	mov	a,?a_main+4+1
   980  0084A  B4 05 07           	cbne	a,#low (5),u461
   981  0084D  E5 24              	mov	a,?a_main+4
   982  0084F  B4 00 02           	cbne	a,#high (5),u461
   983  00852  80 02              	jmp	u460
   984  00854                     u461:
   985  00854  80 06              	jmp	l71
   986  00856                     u460:
   987  00856  75 20  03          	mov	?a_main+0,#high(0+u289)
   988  00859  75 21  0D          	mov	?a_main+0+1,#low(0+u289)
   989  0085C                     l71:
   990                           ;main.c: 108: if (b == 6) result = "8     "; if 
                                 (b == 7) result = "9     "; if (b == 8) result =
                                  "10    ";
   991                           
   992                           	line	108
   993  0085C  E5 25              	mov	a,?a_main+4+1
   994  0085E  B4 06 07           	cbne	a,#low (6),u471
   995  00861  E5 24              	mov	a,?a_main+4
   996  00863  B4 00 02           	cbne	a,#high (6),u471
   997  00866  80 02              	jmp	u470
   998  00868                     u471:
   999  00868  80 06              	jmp	l72
  1000  0086A                     u470:
  1001  0086A  75 20  03          	mov	?a_main+0,#high(0+u299)
  1002  0086D  75 21  06          	mov	?a_main+0+1,#low(0+u299)
  1003  00870                     l72:
  1004  00870  E5 25              	mov	a,?a_main+4+1
  1005  00872  B4 07 07           	cbne	a,#low (7),u481
  1006  00875  E5 24              	mov	a,?a_main+4
  1007  00877  B4 00 02           	cbne	a,#high (7),u481
  1008  0087A  80 02              	jmp	u480
  1009  0087C                     u481:
  1010  0087C  80 06              	jmp	l73
  1011  0087E                     u480:
  1012  0087E  75 20  02          	mov	?a_main+0,#high(0+u309)
  1013  00881  75 21  FF          	mov	?a_main+0+1,#low(0+u309)
  1014  00884                     l73:
  1015  00884  E5 25              	mov	a,?a_main+4+1
  1016  00886  B4 08 07           	cbne	a,#low (8),u491
  1017  00889  E5 24              	mov	a,?a_main+4
  1018  0088B  B4 00 02           	cbne	a,#high (8),u491
  1019  0088E  80 02              	jmp	u490
  1020  00890                     u491:
  1021  00890  80 06              	jmp	l74
  1022  00892                     u490:
  1023  00892  75 20  02          	mov	?a_main+0,#high(0+u319)
  1024  00895  75 21  F8          	mov	?a_main+0+1,#low(0+u319)
  1025  00898                     l74:
  1026                           ;main.c: 109: if (b == 9) result = "11    ";
  1027                           
  1028                           	line	109
  1029  00898  E5 25              	mov	a,?a_main+4+1
  1030  0089A  B4 09 07           	cbne	a,#low (9),u501
  1031  0089D  E5 24              	mov	a,?a_main+4
  1032  0089F  B4 00 02           	cbne	a,#high (9),u501
  1033  008A2  80 02              	jmp	u500
  1034  008A4                     u501:
  1035  008A4  80 06              	jmp	l75
  1036  008A6                     u500:
  1037  008A6  75 20  02          	mov	?a_main+0,#high(0+u329)
  1038  008A9  75 21  D5          	mov	?a_main+0+1,#low(0+u329)
  1039  008AC                     l75:
  1040                           	line	110
  1041  008AC                     l65:
  1042                           ;main.c: 110: }
  1043                           
  1044                           ;main.c: 111: if(a == 3)
  1045                           
  1046                           	line	111
  1047  008AC  E5 23              	mov	a,?a_main+2+1
  1048  008AE  B4 03 07           	cbne	a,#low (3),u511
  1049  008B1  E5 22              	mov	a,?a_main+2
  1050  008B3  B4 00 02           	cbne	a,#high (3),u511
  1051  008B6  80 03              	jmp	u510
  1052  008B8                     u511:
  1053  008B8  02 097F            	jmp	l76
  1054  008BB                     u510:
  1055                           ;main.c: 112: {
  1056                           
  1057                           ;main.c: 113: if (b == 0) result = "3     "; if 
                                 (b == 1) result = "4     "; if (b == 2) result =
                                  "5     ";
  1058                           
  1059                           	line	113
  1060  008BB  E5 25              	mov	a,?a_main+4+1
  1061  008BD  45 24              	orl	a,?a_main+4
  1062  008BF  70 02              	bnz	u521
  1063  008C1  80 02              	jmp	u520
  1064  008C3                     u521:
  1065  008C3  80 06              	jmp	l77
  1066  008C5                     u520:
  1067  008C5  75 20  03          	mov	?a_main+0,#high(0+u339)
  1068  008C8  75 21  29          	mov	?a_main+0+1,#low(0+u339)
  1069  008CB                     l77:
  1070  008CB  E5 25              	mov	a,?a_main+4+1
  1071  008CD  B4 01 07           	cbne	a,#low (1),u531
  1072  008D0  E5 24              	mov	a,?a_main+4
  1073  008D2  B4 00 02           	cbne	a,#high (1),u531
  1074  008D5  80 02              	jmp	u530
  1075  008D7                     u531:
  1076  008D7  80 06              	jmp	l78
  1077  008D9                     u530:
  1078  008D9  75 20  03          	mov	?a_main+0,#high(0+u349)
  1079  008DC  75 21  22          	mov	?a_main+0+1,#low(0+u349)
  1080  008DF                     l78:
  1081  008DF  E5 25              	mov	a,?a_main+4+1
  1082  008E1  B4 02 07           	cbne	a,#low (2),u541
  1083  008E4  E5 24              	mov	a,?a_main+4
  1084  008E6  B4 00 02           	cbne	a,#high (2),u541
  1085  008E9  80 02              	jmp	u540
  1086  008EB                     u541:
  1087  008EB  80 06              	jmp	l79
  1088  008ED                     u540:
  1089  008ED  75 20  03          	mov	?a_main+0,#high(0+u359)
  1090  008F0  75 21  1B          	mov	?a_main+0+1,#low(0+u359)
  1091  008F3                     l79:
  1092                           ;main.c: 114: if (b == 3) result = "6     "; if 
                                 (b == 4) result = "7     "; if (b == 5) result =
                                  "8     ";
  1093                           
  1094                           	line	114
  1095  008F3  E5 25              	mov	a,?a_main+4+1
  1096  008F5  B4 03 07           	cbne	a,#low (3),u551
  1097  008F8  E5 24              	mov	a,?a_main+4
  1098  008FA  B4 00 02           	cbne	a,#high (3),u551
  1099  008FD  80 02              	jmp	u550
  1100  008FF                     u551:
  1101  008FF  80 06              	jmp	l80
  1102  00901                     u550:
  1103  00901  75 20  03          	mov	?a_main+0,#high(0+u369)
  1104  00904  75 21  14          	mov	?a_main+0+1,#low(0+u369)
  1105  00907                     l80:
  1106  00907  E5 25              	mov	a,?a_main+4+1
  1107  00909  B4 04 07           	cbne	a,#low (4),u561
  1108  0090C  E5 24              	mov	a,?a_main+4
  1109  0090E  B4 00 02           	cbne	a,#high (4),u561
  1110  00911  80 02              	jmp	u560
  1111  00913                     u561:
  1112  00913  80 06              	jmp	l81
  1113  00915                     u560:
  1114  00915  75 20  03          	mov	?a_main+0,#high(0+u379)
  1115  00918  75 21  0D          	mov	?a_main+0+1,#low(0+u379)
  1116  0091B                     l81:
  1117  0091B  E5 25              	mov	a,?a_main+4+1
  1118  0091D  B4 05 07           	cbne	a,#low (5),u571
  1119  00920  E5 24              	mov	a,?a_main+4
  1120  00922  B4 00 02           	cbne	a,#high (5),u571
  1121  00925  80 02              	jmp	u570
  1122  00927                     u571:
  1123  00927  80 06              	jmp	l82
  1124  00929                     u570:
  1125  00929  75 20  03          	mov	?a_main+0,#high(0+u389)
  1126  0092C  75 21  06          	mov	?a_main+0+1,#low(0+u389)
  1127  0092F                     l82:
  1128                           ;main.c: 115: if (b == 6) result = "9     "; if 
                                 (b == 7) result = "10    "; if (b == 8) result =
                                  "11    ";
  1129                           
  1130                           	line	115
  1131  0092F  E5 25              	mov	a,?a_main+4+1
  1132  00931  B4 06 07           	cbne	a,#low (6),u581
  1133  00934  E5 24              	mov	a,?a_main+4
  1134  00936  B4 00 02           	cbne	a,#high (6),u581
  1135  00939  80 02              	jmp	u580
  1136  0093B                     u581:
  1137  0093B  80 06              	jmp	l83
  1138  0093D                     u580:
  1139  0093D  75 20  02          	mov	?a_main+0,#high(0+u399)
  1140  00940  75 21  FF          	mov	?a_main+0+1,#low(0+u399)
  1141  00943                     l83:
  1142  00943  E5 25              	mov	a,?a_main+4+1
  1143  00945  B4 07 07           	cbne	a,#low (7),u591
  1144  00948  E5 24              	mov	a,?a_main+4
  1145  0094A  B4 00 02           	cbne	a,#high (7),u591
  1146  0094D  80 02              	jmp	u590
  1147  0094F                     u591:
  1148  0094F  80 06              	jmp	l84
  1149  00951                     u590:
  1150  00951  75 20  02          	mov	?a_main+0,#high(0+u409)
  1151  00954  75 21  F8          	mov	?a_main+0+1,#low(0+u409)
  1152  00957                     l84:
  1153  00957  E5 25              	mov	a,?a_main+4+1
  1154  00959  B4 08 07           	cbne	a,#low (8),u601
  1155  0095C  E5 24              	mov	a,?a_main+4
  1156  0095E  B4 00 02           	cbne	a,#high (8),u601
  1157  00961  80 02              	jmp	u600
  1158  00963                     u601:
  1159  00963  80 06              	jmp	l85
  1160  00965                     u600:
  1161  00965  75 20  02          	mov	?a_main+0,#high(0+u419)
  1162  00968  75 21  D5          	mov	?a_main+0+1,#low(0+u419)
  1163  0096B                     l85:
  1164                           ;main.c: 116: if (b == 9) result = "12    ";
  1165                           
  1166                           	line	116
  1167  0096B  E5 25              	mov	a,?a_main+4+1
  1168  0096D  B4 09 07           	cbne	a,#low (9),u611
  1169  00970  E5 24              	mov	a,?a_main+4
  1170  00972  B4 00 02           	cbne	a,#high (9),u611
  1171  00975  80 02              	jmp	u610
  1172  00977                     u611:
  1173  00977  80 06              	jmp	l86
  1174  00979                     u610:
  1175  00979  75 20  02          	mov	?a_main+0,#high(0+u429)
  1176  0097C  75 21  C0          	mov	?a_main+0+1,#low(0+u429)
  1177  0097F                     l86:
  1178                           	line	117
  1179  0097F                     l76:
  1180                           ;main.c: 117: }
  1181                           
  1182                           ;main.c: 118: if(a == 4)
  1183                           
  1184                           	line	118
  1185  0097F  E5 23              	mov	a,?a_main+2+1
  1186  00981  B4 04 07           	cbne	a,#low (4),u621
  1187  00984  E5 22              	mov	a,?a_main+2
  1188  00986  B4 00 02           	cbne	a,#high (4),u621
  1189  00989  80 03              	jmp	u620
  1190  0098B                     u621:
  1191  0098B  02 0A52            	jmp	l87
  1192  0098E                     u620:
  1193                           ;main.c: 119: {
  1194                           
  1195                           ;main.c: 120: if (b == 0) result = "4     "; if 
                                 (b == 1) result = "5     "; if (b == 2) result =
                                  "6     ";
  1196                           
  1197                           	line	120
  1198  0098E  E5 25              	mov	a,?a_main+4+1
  1199  00990  45 24              	orl	a,?a_main+4
  1200  00992  70 02              	bnz	u631
  1201  00994  80 02              	jmp	u630
  1202  00996                     u631:
  1203  00996  80 06              	jmp	l88
  1204  00998                     u630:
  1205  00998  75 20  03          	mov	?a_main+0,#high(0+u439)
  1206  0099B  75 21  22          	mov	?a_main+0+1,#low(0+u439)
  1207  0099E                     l88:
  1208  0099E  E5 25              	mov	a,?a_main+4+1
  1209  009A0  B4 01 07           	cbne	a,#low (1),u641
  1210  009A3  E5 24              	mov	a,?a_main+4
  1211  009A5  B4 00 02           	cbne	a,#high (1),u641
  1212  009A8  80 02              	jmp	u640
  1213  009AA                     u641:
  1214  009AA  80 06              	jmp	l89
  1215  009AC                     u640:
  1216  009AC  75 20  03          	mov	?a_main+0,#high(0+u449)
  1217  009AF  75 21  1B          	mov	?a_main+0+1,#low(0+u449)
  1218  009B2                     l89:
  1219  009B2  E5 25              	mov	a,?a_main+4+1
  1220  009B4  B4 02 07           	cbne	a,#low (2),u651
  1221  009B7  E5 24              	mov	a,?a_main+4
  1222  009B9  B4 00 02           	cbne	a,#high (2),u651
  1223  009BC  80 02              	jmp	u650
  1224  009BE                     u651:
  1225  009BE  80 06              	jmp	l90
  1226  009C0                     u650:
  1227  009C0  75 20  03          	mov	?a_main+0,#high(0+u459)
  1228  009C3  75 21  14          	mov	?a_main+0+1,#low(0+u459)
  1229  009C6                     l90:
  1230                           ;main.c: 121: if (b == 3) result = "7     "; if 
                                 (b == 4) result = "8     "; if (b == 5) result =
                                  "9     ";
  1231                           
  1232                           	line	121
  1233  009C6  E5 25              	mov	a,?a_main+4+1
  1234  009C8  B4 03 07           	cbne	a,#low (3),u661
  1235  009CB  E5 24              	mov	a,?a_main+4
  1236  009CD  B4 00 02           	cbne	a,#high (3),u661
  1237  009D0  80 02              	jmp	u660
  1238  009D2                     u661:
  1239  009D2  80 06              	jmp	l91
  1240  009D4                     u660:
  1241  009D4  75 20  03          	mov	?a_main+0,#high(0+u469)
  1242  009D7  75 21  0D          	mov	?a_main+0+1,#low(0+u469)
  1243  009DA                     l91:
  1244  009DA  E5 25              	mov	a,?a_main+4+1
  1245  009DC  B4 04 07           	cbne	a,#low (4),u671
  1246  009DF  E5 24              	mov	a,?a_main+4
  1247  009E1  B4 00 02           	cbne	a,#high (4),u671
  1248  009E4  80 02              	jmp	u670
  1249  009E6                     u671:
  1250  009E6  80 06              	jmp	l92
  1251  009E8                     u670:
  1252  009E8  75 20  03          	mov	?a_main+0,#high(0+u479)
  1253  009EB  75 21  06          	mov	?a_main+0+1,#low(0+u479)
  1254  009EE                     l92:
  1255  009EE  E5 25              	mov	a,?a_main+4+1
  1256  009F0  B4 05 07           	cbne	a,#low (5),u681
  1257  009F3  E5 24              	mov	a,?a_main+4
  1258  009F5  B4 00 02           	cbne	a,#high (5),u681
  1259  009F8  80 02              	jmp	u680
  1260  009FA                     u681:
  1261  009FA  80 06              	jmp	l93
  1262  009FC                     u680:
  1263  009FC  75 20  02          	mov	?a_main+0,#high(0+u489)
  1264  009FF  75 21  FF          	mov	?a_main+0+1,#low(0+u489)
  1265  00A02                     l93:
  1266                           ;main.c: 122: if (b == 6) result = "10    "; if 
                                 (b == 7) result = "11    "; if (b == 8) result =
                                  "12    ";
  1267                           
  1268                           	line	122
  1269  00A02  E5 25              	mov	a,?a_main+4+1
  1270  00A04  B4 06 07           	cbne	a,#low (6),u691
  1271  00A07  E5 24              	mov	a,?a_main+4
  1272  00A09  B4 00 02           	cbne	a,#high (6),u691
  1273  00A0C  80 02              	jmp	u690
  1274  00A0E                     u691:
  1275  00A0E  80 06              	jmp	l94
  1276  00A10                     u690:
  1277  00A10  75 20  02          	mov	?a_main+0,#high(0+u499)
  1278  00A13  75 21  F8          	mov	?a_main+0+1,#low(0+u499)
  1279  00A16                     l94:
  1280  00A16  E5 25              	mov	a,?a_main+4+1
  1281  00A18  B4 07 07           	cbne	a,#low (7),u701
  1282  00A1B  E5 24              	mov	a,?a_main+4
  1283  00A1D  B4 00 02           	cbne	a,#high (7),u701
  1284  00A20  80 02              	jmp	u700
  1285  00A22                     u701:
  1286  00A22  80 06              	jmp	l95
  1287  00A24                     u700:
  1288  00A24  75 20  02          	mov	?a_main+0,#high(0+u509)
  1289  00A27  75 21  D5          	mov	?a_main+0+1,#low(0+u509)
  1290  00A2A                     l95:
  1291  00A2A  E5 25              	mov	a,?a_main+4+1
  1292  00A2C  B4 08 07           	cbne	a,#low (8),u711
  1293  00A2F  E5 24              	mov	a,?a_main+4
  1294  00A31  B4 00 02           	cbne	a,#high (8),u711
  1295  00A34  80 02              	jmp	u710
  1296  00A36                     u711:
  1297  00A36  80 06              	jmp	l96
  1298  00A38                     u710:
  1299  00A38  75 20  02          	mov	?a_main+0,#high(0+u519)
  1300  00A3B  75 21  C0          	mov	?a_main+0+1,#low(0+u519)
  1301  00A3E                     l96:
  1302                           ;main.c: 123: if (b == 9) result = "13    ";
  1303                           
  1304                           	line	123
  1305  00A3E  E5 25              	mov	a,?a_main+4+1
  1306  00A40  B4 09 07           	cbne	a,#low (9),u721
  1307  00A43  E5 24              	mov	a,?a_main+4
  1308  00A45  B4 00 02           	cbne	a,#high (9),u721
  1309  00A48  80 02              	jmp	u720
  1310  00A4A                     u721:
  1311  00A4A  80 06              	jmp	l97
  1312  00A4C                     u720:
  1313  00A4C  75 20  02          	mov	?a_main+0,#high(0+u529)
  1314  00A4F  75 21  A4          	mov	?a_main+0+1,#low(0+u529)
  1315  00A52                     l97:
  1316                           	line	124
  1317  00A52                     l87:
  1318                           ;main.c: 124: }
  1319                           
  1320                           ;main.c: 125: if(a == 5)
  1321                           
  1322                           	line	125
  1323  00A52  E5 23              	mov	a,?a_main+2+1
  1324  00A54  B4 05 07           	cbne	a,#low (5),u731
  1325  00A57  E5 22              	mov	a,?a_main+2
  1326  00A59  B4 00 02           	cbne	a,#high (5),u731
  1327  00A5C  80 03              	jmp	u730
  1328  00A5E                     u731:
  1329  00A5E  02 0B25            	jmp	l98
  1330  00A61                     u730:
  1331                           ;main.c: 126: {
  1332                           
  1333                           ;main.c: 127: if (b == 0) result = "5     "; if 
                                 (b == 1) result = "6     "; if (b == 2) result =
                                  "7     ";
  1334                           
  1335                           	line	127
  1336  00A61  E5 25              	mov	a,?a_main+4+1
  1337  00A63  45 24              	orl	a,?a_main+4
  1338  00A65  70 02              	bnz	u741
  1339  00A67  80 02              	jmp	u740
  1340  00A69                     u741:
  1341  00A69  80 06              	jmp	l99
  1342  00A6B                     u740:
  1343  00A6B  75 20  03          	mov	?a_main+0,#high(0+u539)
  1344  00A6E  75 21  1B          	mov	?a_main+0+1,#low(0+u539)
  1345  00A71                     l99:
  1346  00A71  E5 25              	mov	a,?a_main+4+1
  1347  00A73  B4 01 07           	cbne	a,#low (1),u751
  1348  00A76  E5 24              	mov	a,?a_main+4
  1349  00A78  B4 00 02           	cbne	a,#high (1),u751
  1350  00A7B  80 02              	jmp	u750
  1351  00A7D                     u751:
  1352  00A7D  80 06              	jmp	l100
  1353  00A7F                     u750:
  1354  00A7F  75 20  03          	mov	?a_main+0,#high(0+u549)
  1355  00A82  75 21  14          	mov	?a_main+0+1,#low(0+u549)
  1356  00A85                     l100:
  1357  00A85  E5 25              	mov	a,?a_main+4+1
  1358  00A87  B4 02 07           	cbne	a,#low (2),u761
  1359  00A8A  E5 24              	mov	a,?a_main+4
  1360  00A8C  B4 00 02           	cbne	a,#high (2),u761
  1361  00A8F  80 02              	jmp	u760
  1362  00A91                     u761:
  1363  00A91  80 06              	jmp	l101
  1364  00A93                     u760:
  1365  00A93  75 20  03          	mov	?a_main+0,#high(0+u559)
  1366  00A96  75 21  0D          	mov	?a_main+0+1,#low(0+u559)
  1367  00A99                     l101:
  1368                           ;main.c: 128: if (b == 3) result = "8     "; if 
                                 (b == 4) result = "9     "; if (b == 5) result =
                                  "10    ";
  1369                           
  1370                           	line	128
  1371  00A99  E5 25              	mov	a,?a_main+4+1
  1372  00A9B  B4 03 07           	cbne	a,#low (3),u771
  1373  00A9E  E5 24              	mov	a,?a_main+4
  1374  00AA0  B4 00 02           	cbne	a,#high (3),u771
  1375  00AA3  80 02              	jmp	u770
  1376  00AA5                     u771:
  1377  00AA5  80 06              	jmp	l102
  1378  00AA7                     u770:
  1379  00AA7  75 20  03          	mov	?a_main+0,#high(0+u569)
  1380  00AAA  75 21  06          	mov	?a_main+0+1,#low(0+u569)
  1381  00AAD                     l102:
  1382  00AAD  E5 25              	mov	a,?a_main+4+1
  1383  00AAF  B4 04 07           	cbne	a,#low (4),u781
  1384  00AB2  E5 24              	mov	a,?a_main+4
  1385  00AB4  B4 00 02           	cbne	a,#high (4),u781
  1386  00AB7  80 02              	jmp	u780
  1387  00AB9                     u781:
  1388  00AB9  80 06              	jmp	l103
  1389  00ABB                     u780:
  1390  00ABB  75 20  02          	mov	?a_main+0,#high(0+u579)
  1391  00ABE  75 21  FF          	mov	?a_main+0+1,#low(0+u579)
  1392  00AC1                     l103:
  1393  00AC1  E5 25              	mov	a,?a_main+4+1
  1394  00AC3  B4 05 07           	cbne	a,#low (5),u791
  1395  00AC6  E5 24              	mov	a,?a_main+4
  1396  00AC8  B4 00 02           	cbne	a,#high (5),u791
  1397  00ACB  80 02              	jmp	u790
  1398  00ACD                     u791:
  1399  00ACD  80 06              	jmp	l104
  1400  00ACF                     u790:
  1401  00ACF  75 20  02          	mov	?a_main+0,#high(0+u589)
  1402  00AD2  75 21  F8          	mov	?a_main+0+1,#low(0+u589)
  1403  00AD5                     l104:
  1404                           ;main.c: 129: if (b == 6) result = "11    "; if 
                                 (b == 7) result = "12    "; if (b == 8) result =
                                  "13    ";
  1405                           
  1406                           	line	129
  1407  00AD5  E5 25              	mov	a,?a_main+4+1
  1408  00AD7  B4 06 07           	cbne	a,#low (6),u801
  1409  00ADA  E5 24              	mov	a,?a_main+4
  1410  00ADC  B4 00 02           	cbne	a,#high (6),u801
  1411  00ADF  80 02              	jmp	u800
  1412  00AE1                     u801:
  1413  00AE1  80 06              	jmp	l105
  1414  00AE3                     u800:
  1415  00AE3  75 20  02          	mov	?a_main+0,#high(0+u599)
  1416  00AE6  75 21  D5          	mov	?a_main+0+1,#low(0+u599)
  1417  00AE9                     l105:
  1418  00AE9  E5 25              	mov	a,?a_main+4+1
  1419  00AEB  B4 07 07           	cbne	a,#low (7),u811
  1420  00AEE  E5 24              	mov	a,?a_main+4
  1421  00AF0  B4 00 02           	cbne	a,#high (7),u811
  1422  00AF3  80 02              	jmp	u810
  1423  00AF5                     u811:
  1424  00AF5  80 06              	jmp	l106
  1425  00AF7                     u810:
  1426  00AF7  75 20  02          	mov	?a_main+0,#high(0+u609)
  1427  00AFA  75 21  C0          	mov	?a_main+0+1,#low(0+u609)
  1428  00AFD                     l106:
  1429  00AFD  E5 25              	mov	a,?a_main+4+1
  1430  00AFF  B4 08 07           	cbne	a,#low (8),u821
  1431  00B02  E5 24              	mov	a,?a_main+4
  1432  00B04  B4 00 02           	cbne	a,#high (8),u821
  1433  00B07  80 02              	jmp	u820
  1434  00B09                     u821:
  1435  00B09  80 06              	jmp	l107
  1436  00B0B                     u820:
  1437  00B0B  75 20  02          	mov	?a_main+0,#high(0+u619)
  1438  00B0E  75 21  A4          	mov	?a_main+0+1,#low(0+u619)
  1439  00B11                     l107:
  1440                           ;main.c: 130: if (b == 9) result = "14    ";
  1441                           
  1442                           	line	130
  1443  00B11  E5 25              	mov	a,?a_main+4+1
  1444  00B13  B4 09 07           	cbne	a,#low (9),u831
  1445  00B16  E5 24              	mov	a,?a_main+4
  1446  00B18  B4 00 02           	cbne	a,#high (9),u831
  1447  00B1B  80 02              	jmp	u830
  1448  00B1D                     u831:
  1449  00B1D  80 06              	jmp	l108
  1450  00B1F                     u830:
  1451  00B1F  75 20  02          	mov	?a_main+0,#high(0+u629)
  1452  00B22  75 21  8F          	mov	?a_main+0+1,#low(0+u629)
  1453  00B25                     l108:
  1454                           	line	131
  1455  00B25                     l98:
  1456                           ;main.c: 131: }
  1457                           
  1458                           ;main.c: 132: if(a == 6)
  1459                           
  1460                           	line	132
  1461  00B25  E5 23              	mov	a,?a_main+2+1
  1462  00B27  B4 06 07           	cbne	a,#low (6),u841
  1463  00B2A  E5 22              	mov	a,?a_main+2
  1464  00B2C  B4 00 02           	cbne	a,#high (6),u841
  1465  00B2F  80 03              	jmp	u840
  1466  00B31                     u841:
  1467  00B31  02 0BF8            	jmp	l109
  1468  00B34                     u840:
  1469                           ;main.c: 133: {
  1470                           
  1471                           ;main.c: 134: if (b == 0) result = "6     "; if 
                                 (b == 1) result = "7     "; if (b == 2) result =
                                  "8     ";
  1472                           
  1473                           	line	134
  1474  00B34  E5 25              	mov	a,?a_main+4+1
  1475  00B36  45 24              	orl	a,?a_main+4
  1476  00B38  70 02              	bnz	u851
  1477  00B3A  80 02              	jmp	u850
  1478  00B3C                     u851:
  1479  00B3C  80 06              	jmp	l110
  1480  00B3E                     u850:
  1481  00B3E  75 20  03          	mov	?a_main+0,#high(0+u639)
  1482  00B41  75 21  14          	mov	?a_main+0+1,#low(0+u639)
  1483  00B44                     l110:
  1484  00B44  E5 25              	mov	a,?a_main+4+1
  1485  00B46  B4 01 07           	cbne	a,#low (1),u861
  1486  00B49  E5 24              	mov	a,?a_main+4
  1487  00B4B  B4 00 02           	cbne	a,#high (1),u861
  1488  00B4E  80 02              	jmp	u860
  1489  00B50                     u861:
  1490  00B50  80 06              	jmp	l111
  1491  00B52                     u860:
  1492  00B52  75 20  03          	mov	?a_main+0,#high(0+u649)
  1493  00B55  75 21  0D          	mov	?a_main+0+1,#low(0+u649)
  1494  00B58                     l111:
  1495  00B58  E5 25              	mov	a,?a_main+4+1
  1496  00B5A  B4 02 07           	cbne	a,#low (2),u871
  1497  00B5D  E5 24              	mov	a,?a_main+4
  1498  00B5F  B4 00 02           	cbne	a,#high (2),u871
  1499  00B62  80 02              	jmp	u870
  1500  00B64                     u871:
  1501  00B64  80 06              	jmp	l112
  1502  00B66                     u870:
  1503  00B66  75 20  03          	mov	?a_main+0,#high(0+u659)
  1504  00B69  75 21  06          	mov	?a_main+0+1,#low(0+u659)
  1505  00B6C                     l112:
  1506                           ;main.c: 135: if (b == 3) result = "9     "; if 
                                 (b == 4) result = "10    "; if (b == 5) result =
                                  "11    ";
  1507                           
  1508                           	line	135
  1509  00B6C  E5 25              	mov	a,?a_main+4+1
  1510  00B6E  B4 03 07           	cbne	a,#low (3),u881
  1511  00B71  E5 24              	mov	a,?a_main+4
  1512  00B73  B4 00 02           	cbne	a,#high (3),u881
  1513  00B76  80 02              	jmp	u880
  1514  00B78                     u881:
  1515  00B78  80 06              	jmp	l113
  1516  00B7A                     u880:
  1517  00B7A  75 20  02          	mov	?a_main+0,#high(0+u669)
  1518  00B7D  75 21  FF          	mov	?a_main+0+1,#low(0+u669)
  1519  00B80                     l113:
  1520  00B80  E5 25              	mov	a,?a_main+4+1
  1521  00B82  B4 04 07           	cbne	a,#low (4),u891
  1522  00B85  E5 24              	mov	a,?a_main+4
  1523  00B87  B4 00 02           	cbne	a,#high (4),u891
  1524  00B8A  80 02              	jmp	u890
  1525  00B8C                     u891:
  1526  00B8C  80 06              	jmp	l114
  1527  00B8E                     u890:
  1528  00B8E  75 20  02          	mov	?a_main+0,#high(0+u679)
  1529  00B91  75 21  F8          	mov	?a_main+0+1,#low(0+u679)
  1530  00B94                     l114:
  1531  00B94  E5 25              	mov	a,?a_main+4+1
  1532  00B96  B4 05 07           	cbne	a,#low (5),u901
  1533  00B99  E5 24              	mov	a,?a_main+4
  1534  00B9B  B4 00 02           	cbne	a,#high (5),u901
  1535  00B9E  80 02              	jmp	u900
  1536  00BA0                     u901:
  1537  00BA0  80 06              	jmp	l115
  1538  00BA2                     u900:
  1539  00BA2  75 20  02          	mov	?a_main+0,#high(0+u689)
  1540  00BA5  75 21  D5          	mov	?a_main+0+1,#low(0+u689)
  1541  00BA8                     l115:
  1542                           ;main.c: 136: if (b == 6) result = "12    "; if 
                                 (b == 7) result = "13    "; if (b == 8) result =
                                  "14    ";
  1543                           
  1544                           	line	136
  1545  00BA8  E5 25              	mov	a,?a_main+4+1
  1546  00BAA  B4 06 07           	cbne	a,#low (6),u911
  1547  00BAD  E5 24              	mov	a,?a_main+4
  1548  00BAF  B4 00 02           	cbne	a,#high (6),u911
  1549  00BB2  80 02              	jmp	u910
  1550  00BB4                     u911:
  1551  00BB4  80 06              	jmp	l116
  1552  00BB6                     u910:
  1553  00BB6  75 20  02          	mov	?a_main+0,#high(0+u699)
  1554  00BB9  75 21  C0          	mov	?a_main+0+1,#low(0+u699)
  1555  00BBC                     l116:
  1556  00BBC  E5 25              	mov	a,?a_main+4+1
  1557  00BBE  B4 07 07           	cbne	a,#low (7),u921
  1558  00BC1  E5 24              	mov	a,?a_main+4
  1559  00BC3  B4 00 02           	cbne	a,#high (7),u921
  1560  00BC6  80 02              	jmp	u920
  1561  00BC8                     u921:
  1562  00BC8  80 06              	jmp	l117
  1563  00BCA                     u920:
  1564  00BCA  75 20  02          	mov	?a_main+0,#high(0+u709)
  1565  00BCD  75 21  A4          	mov	?a_main+0+1,#low(0+u709)
  1566  00BD0                     l117:
  1567  00BD0  E5 25              	mov	a,?a_main+4+1
  1568  00BD2  B4 08 07           	cbne	a,#low (8),u931
  1569  00BD5  E5 24              	mov	a,?a_main+4
  1570  00BD7  B4 00 02           	cbne	a,#high (8),u931
  1571  00BDA  80 02              	jmp	u930
  1572  00BDC                     u931:
  1573  00BDC  80 06              	jmp	l118
  1574  00BDE                     u930:
  1575  00BDE  75 20  02          	mov	?a_main+0,#high(0+u719)
  1576  00BE1  75 21  8F          	mov	?a_main+0+1,#low(0+u719)
  1577  00BE4                     l118:
  1578                           ;main.c: 137: if (b == 9) result = "15    ";
  1579                           
  1580                           	line	137
  1581  00BE4  E5 25              	mov	a,?a_main+4+1
  1582  00BE6  B4 09 07           	cbne	a,#low (9),u941
  1583  00BE9  E5 24              	mov	a,?a_main+4
  1584  00BEB  B4 00 02           	cbne	a,#high (9),u941
  1585  00BEE  80 02              	jmp	u940
  1586  00BF0                     u941:
  1587  00BF0  80 06              	jmp	l119
  1588  00BF2                     u940:
  1589  00BF2  75 20  02          	mov	?a_main+0,#high(0+u729)
  1590  00BF5  75 21  73          	mov	?a_main+0+1,#low(0+u729)
  1591  00BF8                     l119:
  1592                           	line	138
  1593  00BF8                     l109:
  1594                           ;main.c: 138: }
  1595                           
  1596                           ;main.c: 139: if(a == 7)
  1597                           
  1598                           	line	139
  1599  00BF8  E5 23              	mov	a,?a_main+2+1
  1600  00BFA  B4 07 07           	cbne	a,#low (7),u951
  1601  00BFD  E5 22              	mov	a,?a_main+2
  1602  00BFF  B4 00 02           	cbne	a,#high (7),u951
  1603  00C02  80 03              	jmp	u950
  1604  00C04                     u951:
  1605  00C04  02 0CCB            	jmp	l120
  1606  00C07                     u950:
  1607                           ;main.c: 140: {
  1608                           
  1609                           ;main.c: 141: if (b == 0) result = "7     "; if 
                                 (b == 1) result = "8     "; if (b == 2) result =
                                  "9     ";
  1610                           
  1611                           	line	141
  1612  00C07  E5 25              	mov	a,?a_main+4+1
  1613  00C09  45 24              	orl	a,?a_main+4
  1614  00C0B  70 02              	bnz	u961
  1615  00C0D  80 02              	jmp	u960
  1616  00C0F                     u961:
  1617  00C0F  80 06              	jmp	l121
  1618  00C11                     u960:
  1619  00C11  75 20  03          	mov	?a_main+0,#high(0+u739)
  1620  00C14  75 21  0D          	mov	?a_main+0+1,#low(0+u739)
  1621  00C17                     l121:
  1622  00C17  E5 25              	mov	a,?a_main+4+1
  1623  00C19  B4 01 07           	cbne	a,#low (1),u971
  1624  00C1C  E5 24              	mov	a,?a_main+4
  1625  00C1E  B4 00 02           	cbne	a,#high (1),u971
  1626  00C21  80 02              	jmp	u970
  1627  00C23                     u971:
  1628  00C23  80 06              	jmp	l122
  1629  00C25                     u970:
  1630  00C25  75 20  03          	mov	?a_main+0,#high(0+u749)
  1631  00C28  75 21  06          	mov	?a_main+0+1,#low(0+u749)
  1632  00C2B                     l122:
  1633  00C2B  E5 25              	mov	a,?a_main+4+1
  1634  00C2D  B4 02 07           	cbne	a,#low (2),u981
  1635  00C30  E5 24              	mov	a,?a_main+4
  1636  00C32  B4 00 02           	cbne	a,#high (2),u981
  1637  00C35  80 02              	jmp	u980
  1638  00C37                     u981:
  1639  00C37  80 06              	jmp	l123
  1640  00C39                     u980:
  1641  00C39  75 20  02          	mov	?a_main+0,#high(0+u759)
  1642  00C3C  75 21  FF          	mov	?a_main+0+1,#low(0+u759)
  1643  00C3F                     l123:
  1644                           ;main.c: 142: if (b == 3) result = "10    "; if 
                                 (b == 4) result = "11    "; if (b == 5) result =
                                  "12    ";
  1645                           
  1646                           	line	142
  1647  00C3F  E5 25              	mov	a,?a_main+4+1
  1648  00C41  B4 03 07           	cbne	a,#low (3),u991
  1649  00C44  E5 24              	mov	a,?a_main+4
  1650  00C46  B4 00 02           	cbne	a,#high (3),u991
  1651  00C49  80 02              	jmp	u990
  1652  00C4B                     u991:
  1653  00C4B  80 06              	jmp	l124
  1654  00C4D                     u990:
  1655  00C4D  75 20  02          	mov	?a_main+0,#high(0+u769)
  1656  00C50  75 21  F8          	mov	?a_main+0+1,#low(0+u769)
  1657  00C53                     l124:
  1658  00C53  E5 25              	mov	a,?a_main+4+1
  1659  00C55  B4 04 07           	cbne	a,#low (4),u1001
  1660  00C58  E5 24              	mov	a,?a_main+4
  1661  00C5A  B4 00 02           	cbne	a,#high (4),u1001
  1662  00C5D  80 02              	jmp	u1000
  1663  00C5F                     u1001:
  1664  00C5F  80 06              	jmp	l125
  1665  00C61                     u1000:
  1666  00C61  75 20  02          	mov	?a_main+0,#high(0+u779)
  1667  00C64  75 21  D5          	mov	?a_main+0+1,#low(0+u779)
  1668  00C67                     l125:
  1669  00C67  E5 25              	mov	a,?a_main+4+1
  1670  00C69  B4 05 07           	cbne	a,#low (5),u1011
  1671  00C6C  E5 24              	mov	a,?a_main+4
  1672  00C6E  B4 00 02           	cbne	a,#high (5),u1011
  1673  00C71  80 02              	jmp	u1010
  1674  00C73                     u1011:
  1675  00C73  80 06              	jmp	l126
  1676  00C75                     u1010:
  1677  00C75  75 20  02          	mov	?a_main+0,#high(0+u789)
  1678  00C78  75 21  C0          	mov	?a_main+0+1,#low(0+u789)
  1679  00C7B                     l126:
  1680                           ;main.c: 143: if (b == 6) result = "13    "; if 
                                 (b == 7) result = "14    "; if (b == 8) result =
                                  "15    ";
  1681                           
  1682                           	line	143
  1683  00C7B  E5 25              	mov	a,?a_main+4+1
  1684  00C7D  B4 06 07           	cbne	a,#low (6),u1021
  1685  00C80  E5 24              	mov	a,?a_main+4
  1686  00C82  B4 00 02           	cbne	a,#high (6),u1021
  1687  00C85  80 02              	jmp	u1020
  1688  00C87                     u1021:
  1689  00C87  80 06              	jmp	l127
  1690  00C89                     u1020:
  1691  00C89  75 20  02          	mov	?a_main+0,#high(0+u799)
  1692  00C8C  75 21  A4          	mov	?a_main+0+1,#low(0+u799)
  1693  00C8F                     l127:
  1694  00C8F  E5 25              	mov	a,?a_main+4+1
  1695  00C91  B4 07 07           	cbne	a,#low (7),u1031
  1696  00C94  E5 24              	mov	a,?a_main+4
  1697  00C96  B4 00 02           	cbne	a,#high (7),u1031
  1698  00C99  80 02              	jmp	u1030
  1699  00C9B                     u1031:
  1700  00C9B  80 06              	jmp	l128
  1701  00C9D                     u1030:
  1702  00C9D  75 20  02          	mov	?a_main+0,#high(0+u809)
  1703  00CA0  75 21  8F          	mov	?a_main+0+1,#low(0+u809)
  1704  00CA3                     l128:
  1705  00CA3  E5 25              	mov	a,?a_main+4+1
  1706  00CA5  B4 08 07           	cbne	a,#low (8),u1041
  1707  00CA8  E5 24              	mov	a,?a_main+4
  1708  00CAA  B4 00 02           	cbne	a,#high (8),u1041
  1709  00CAD  80 02              	jmp	u1040
  1710  00CAF                     u1041:
  1711  00CAF  80 06              	jmp	l129
  1712  00CB1                     u1040:
  1713  00CB1  75 20  02          	mov	?a_main+0,#high(0+u819)
  1714  00CB4  75 21  73          	mov	?a_main+0+1,#low(0+u819)
  1715  00CB7                     l129:
  1716                           ;main.c: 144: if (b == 9) result = "16    ";
  1717                           
  1718                           	line	144
  1719  00CB7  E5 25              	mov	a,?a_main+4+1
  1720  00CB9  B4 09 07           	cbne	a,#low (9),u1051
  1721  00CBC  E5 24              	mov	a,?a_main+4
  1722  00CBE  B4 00 02           	cbne	a,#high (9),u1051
  1723  00CC1  80 02              	jmp	u1050
  1724  00CC3                     u1051:
  1725  00CC3  80 06              	jmp	l130
  1726  00CC5                     u1050:
  1727  00CC5  75 20  02          	mov	?a_main+0,#high(0+u829)
  1728  00CC8  75 21  50          	mov	?a_main+0+1,#low(0+u829)
  1729  00CCB                     l130:
  1730                           	line	145
  1731  00CCB                     l120:
  1732                           	line	146
  1733  00CCB                     l42:
  1734                           ;main.c: 145: }
  1735                           
  1736                           ;main.c: 146: }
  1737                           
  1738                           ;main.c: 147: if(flag == 2)
  1739                           
  1740                           	line	147
  1741  00CCB  E5 27              	mov	a,?a_main+6+1
  1742  00CCD  B4 02 07           	cbne	a,#low (2),u1061
  1743  00CD0  E5 26              	mov	a,?a_main+6
  1744  00CD2  B4 00 02           	cbne	a,#high (2),u1061
  1745  00CD5  80 03              	jmp	u1060
  1746  00CD7                     u1061:
  1747  00CD7  02 136E            	jmp	l131
  1748  00CDA                     u1060:
  1749                           ;main.c: 148: {
  1750                           
  1751                           ;main.c: 149: if(a == 0)
  1752                           
  1753                           	line	149
  1754  00CDA  E5 23              	mov	a,?a_main+2+1
  1755  00CDC  45 22              	orl	a,?a_main+2
  1756  00CDE  70 02              	bnz	u1071
  1757  00CE0  80 03              	jmp	u1070
  1758  00CE2                     u1071:
  1759  00CE2  02 0DA9            	jmp	l132
  1760  00CE5                     u1070:
  1761                           ;main.c: 150: {
  1762                           
  1763                           ;main.c: 151: if (b == 0) result = "0     "; if 
                                 (b == 1) result = "-1    "; if (b == 2) result =
                                  "-2    ";
  1764                           
  1765                           	line	151
  1766  00CE5  E5 25              	mov	a,?a_main+4+1
  1767  00CE7  45 24              	orl	a,?a_main+4
  1768  00CE9  70 02              	bnz	u1081
  1769  00CEB  80 02              	jmp	u1080
  1770  00CED                     u1081:
  1771  00CED  80 06              	jmp	l133
  1772  00CEF                     u1080:
  1773  00CEF  75 20  03          	mov	?a_main+0,#high(0+u839)
  1774  00CF2  75 21  3E          	mov	?a_main+0+1,#low(0+u839)
  1775  00CF5                     l133:
  1776  00CF5  E5 25              	mov	a,?a_main+4+1
  1777  00CF7  B4 01 07           	cbne	a,#low (1),u1091
  1778  00CFA  E5 24              	mov	a,?a_main+4
  1779  00CFC  B4 00 02           	cbne	a,#high (1),u1091
  1780  00CFF  80 02              	jmp	u1090
  1781  00D01                     u1091:
  1782  00D01  80 06              	jmp	l134
  1783  00D03                     u1090:
  1784  00D03  75 20  02          	mov	?a_main+0,#high(0+u849)
  1785  00D06  75 21  DC          	mov	?a_main+0+1,#low(0+u849)
  1786  00D09                     l134:
  1787  00D09  E5 25              	mov	a,?a_main+4+1
  1788  00D0B  B4 02 07           	cbne	a,#low (2),u1101
  1789  00D0E  E5 24              	mov	a,?a_main+4
  1790  00D10  B4 00 02           	cbne	a,#high (2),u1101
  1791  00D13  80 02              	jmp	u1100
  1792  00D15                     u1101:
  1793  00D15  80 06              	jmp	l135
  1794  00D17                     u1100:
  1795  00D17  75 20  02          	mov	?a_main+0,#high(0+u859)
  1796  00D1A  75 21  C7          	mov	?a_main+0+1,#low(0+u859)
  1797  00D1D                     l135:
  1798                           ;main.c: 152: if (b == 3) result = "-3    "; if 
                                 (b == 4) result = "-4    "; if (b == 5) result =
                                  "-5    ";
  1799                           
  1800                           	line	152
  1801  00D1D  E5 25              	mov	a,?a_main+4+1
  1802  00D1F  B4 03 07           	cbne	a,#low (3),u1111
  1803  00D22  E5 24              	mov	a,?a_main+4
  1804  00D24  B4 00 02           	cbne	a,#high (3),u1111
  1805  00D27  80 02              	jmp	u1110
  1806  00D29                     u1111:
  1807  00D29  80 06              	jmp	l136
  1808  00D2B                     u1110:
  1809  00D2B  75 20  02          	mov	?a_main+0,#high(0+u869)
  1810  00D2E  75 21  AB          	mov	?a_main+0+1,#low(0+u869)
  1811  00D31                     l136:
  1812  00D31  E5 25              	mov	a,?a_main+4+1
  1813  00D33  B4 04 07           	cbne	a,#low (4),u1121
  1814  00D36  E5 24              	mov	a,?a_main+4
  1815  00D38  B4 00 02           	cbne	a,#high (4),u1121
  1816  00D3B  80 02              	jmp	u1120
  1817  00D3D                     u1121:
  1818  00D3D  80 06              	jmp	l137
  1819  00D3F                     u1120:
  1820  00D3F  75 20  02          	mov	?a_main+0,#high(0+u879)
  1821  00D42  75 21  96          	mov	?a_main+0+1,#low(0+u879)
  1822  00D45                     l137:
  1823  00D45  E5 25              	mov	a,?a_main+4+1
  1824  00D47  B4 05 07           	cbne	a,#low (5),u1131
  1825  00D4A  E5 24              	mov	a,?a_main+4
  1826  00D4C  B4 00 02           	cbne	a,#high (5),u1131
  1827  00D4F  80 02              	jmp	u1130
  1828  00D51                     u1131:
  1829  00D51  80 06              	jmp	l138
  1830  00D53                     u1130:
  1831  00D53  75 20  02          	mov	?a_main+0,#high(0+u889)
  1832  00D56  75 21  7A          	mov	?a_main+0+1,#low(0+u889)
  1833  00D59                     l138:
  1834                           ;main.c: 153: if (b == 6) result = "-6    "; if 
                                 (b == 7) result = "-7    "; if (b == 8) result =
                                  "-8    ";
  1835                           
  1836                           	line	153
  1837  00D59  E5 25              	mov	a,?a_main+4+1
  1838  00D5B  B4 06 07           	cbne	a,#low (6),u1141
  1839  00D5E  E5 24              	mov	a,?a_main+4
  1840  00D60  B4 00 02           	cbne	a,#high (6),u1141
  1841  00D63  80 02              	jmp	u1140
  1842  00D65                     u1141:
  1843  00D65  80 06              	jmp	l139
  1844  00D67                     u1140:
  1845  00D67  75 20  02          	mov	?a_main+0,#high(0+u899)
  1846  00D6A  75 21  57          	mov	?a_main+0+1,#low(0+u899)
  1847  00D6D                     l139:
  1848  00D6D  E5 25              	mov	a,?a_main+4+1
  1849  00D6F  B4 07 07           	cbne	a,#low (7),u1151
  1850  00D72  E5 24              	mov	a,?a_main+4
  1851  00D74  B4 00 02           	cbne	a,#high (7),u1151
  1852  00D77  80 02              	jmp	u1150
  1853  00D79                     u1151:
  1854  00D79  80 06              	jmp	l140
  1855  00D7B                     u1150:
  1856  00D7B  75 20  02          	mov	?a_main+0,#high(0+u909)
  1857  00D7E  75 21  3B          	mov	?a_main+0+1,#low(0+u909)
  1858  00D81                     l140:
  1859  00D81  E5 25              	mov	a,?a_main+4+1
  1860  00D83  B4 08 07           	cbne	a,#low (8),u1161
  1861  00D86  E5 24              	mov	a,?a_main+4
  1862  00D88  B4 00 02           	cbne	a,#high (8),u1161
  1863  00D8B  80 02              	jmp	u1160
  1864  00D8D                     u1161:
  1865  00D8D  80 06              	jmp	l141
  1866  00D8F                     u1160:
  1867  00D8F  75 20  02          	mov	?a_main+0,#high(0+u919)
  1868  00D92  75 21  2D          	mov	?a_main+0+1,#low(0+u919)
  1869  00D95                     l141:
  1870                           ;main.c: 154: if (b == 9) result = "-9    ";
  1871                           
  1872                           	line	154
  1873  00D95  E5 25              	mov	a,?a_main+4+1
  1874  00D97  B4 09 07           	cbne	a,#low (9),u1171
  1875  00D9A  E5 24              	mov	a,?a_main+4
  1876  00D9C  B4 00 02           	cbne	a,#high (9),u1171
  1877  00D9F  80 02              	jmp	u1170
  1878  00DA1                     u1171:
  1879  00DA1  80 06              	jmp	l142
  1880  00DA3                     u1170:
  1881  00DA3  75 20  02          	mov	?a_main+0,#high(0+u929)
  1882  00DA6  75 21  11          	mov	?a_main+0+1,#low(0+u929)
  1883  00DA9                     l142:
  1884                           	line	155
  1885  00DA9                     l132:
  1886                           ;main.c: 155: }
  1887                           
  1888                           ;main.c: 156: if(a == 1)
  1889                           
  1890                           	line	156
  1891  00DA9  E5 23              	mov	a,?a_main+2+1
  1892  00DAB  B4 01 07           	cbne	a,#low (1),u1181
  1893  00DAE  E5 22              	mov	a,?a_main+2
  1894  00DB0  B4 00 02           	cbne	a,#high (1),u1181
  1895  00DB3  80 03              	jmp	u1180
  1896  00DB5                     u1181:
  1897  00DB5  02 0E7C            	jmp	l143
  1898  00DB8                     u1180:
  1899                           ;main.c: 157: {
  1900                           
  1901                           ;main.c: 158: if (b == 0) result = "1     "; if 
                                 (b == 1) result = "0     "; if (b == 2) result =
                                  "-1    ";
  1902                           
  1903                           	line	158
  1904  00DB8  E5 25              	mov	a,?a_main+4+1
  1905  00DBA  45 24              	orl	a,?a_main+4
  1906  00DBC  70 02              	bnz	u1191
  1907  00DBE  80 02              	jmp	u1190
  1908  00DC0                     u1191:
  1909  00DC0  80 06              	jmp	l144
  1910  00DC2                     u1190:
  1911  00DC2  75 20  03          	mov	?a_main+0,#high(0+u939)
  1912  00DC5  75 21  37          	mov	?a_main+0+1,#low(0+u939)
  1913  00DC8                     l144:
  1914  00DC8  E5 25              	mov	a,?a_main+4+1
  1915  00DCA  B4 01 07           	cbne	a,#low (1),u1201
  1916  00DCD  E5 24              	mov	a,?a_main+4
  1917  00DCF  B4 00 02           	cbne	a,#high (1),u1201
  1918  00DD2  80 02              	jmp	u1200
  1919  00DD4                     u1201:
  1920  00DD4  80 06              	jmp	l145
  1921  00DD6                     u1200:
  1922  00DD6  75 20  03          	mov	?a_main+0,#high(0+u949)
  1923  00DD9  75 21  3E          	mov	?a_main+0+1,#low(0+u949)
  1924  00DDC                     l145:
  1925  00DDC  E5 25              	mov	a,?a_main+4+1
  1926  00DDE  B4 02 07           	cbne	a,#low (2),u1211
  1927  00DE1  E5 24              	mov	a,?a_main+4
  1928  00DE3  B4 00 02           	cbne	a,#high (2),u1211
  1929  00DE6  80 02              	jmp	u1210
  1930  00DE8                     u1211:
  1931  00DE8  80 06              	jmp	l146
  1932  00DEA                     u1210:
  1933  00DEA  75 20  02          	mov	?a_main+0,#high(0+u959)
  1934  00DED  75 21  DC          	mov	?a_main+0+1,#low(0+u959)
  1935  00DF0                     l146:
  1936                           ;main.c: 159: if (b == 3) result = "-2    "; if 
                                 (b == 4) result = "-3    "; if (b == 5) result =
                                  "-4    ";
  1937                           
  1938                           	line	159
  1939  00DF0  E5 25              	mov	a,?a_main+4+1
  1940  00DF2  B4 03 07           	cbne	a,#low (3),u1221
  1941  00DF5  E5 24              	mov	a,?a_main+4
  1942  00DF7  B4 00 02           	cbne	a,#high (3),u1221
  1943  00DFA  80 02              	jmp	u1220
  1944  00DFC                     u1221:
  1945  00DFC  80 06              	jmp	l147
  1946  00DFE                     u1220:
  1947  00DFE  75 20  02          	mov	?a_main+0,#high(0+u969)
  1948  00E01  75 21  C7          	mov	?a_main+0+1,#low(0+u969)
  1949  00E04                     l147:
  1950  00E04  E5 25              	mov	a,?a_main+4+1
  1951  00E06  B4 04 07           	cbne	a,#low (4),u1231
  1952  00E09  E5 24              	mov	a,?a_main+4
  1953  00E0B  B4 00 02           	cbne	a,#high (4),u1231
  1954  00E0E  80 02              	jmp	u1230
  1955  00E10                     u1231:
  1956  00E10  80 06              	jmp	l148
  1957  00E12                     u1230:
  1958  00E12  75 20  02          	mov	?a_main+0,#high(0+u979)
  1959  00E15  75 21  AB          	mov	?a_main+0+1,#low(0+u979)
  1960  00E18                     l148:
  1961  00E18  E5 25              	mov	a,?a_main+4+1
  1962  00E1A  B4 05 07           	cbne	a,#low (5),u1241
  1963  00E1D  E5 24              	mov	a,?a_main+4
  1964  00E1F  B4 00 02           	cbne	a,#high (5),u1241
  1965  00E22  80 02              	jmp	u1240
  1966  00E24                     u1241:
  1967  00E24  80 06              	jmp	l149
  1968  00E26                     u1240:
  1969  00E26  75 20  02          	mov	?a_main+0,#high(0+u989)
  1970  00E29  75 21  96          	mov	?a_main+0+1,#low(0+u989)
  1971  00E2C                     l149:
  1972                           ;main.c: 160: if (b == 6) result = "-5    "; if 
                                 (b == 7) result = "-6    "; if (b == 8) result =
                                  "-7    ";
  1973                           
  1974                           	line	160
  1975  00E2C  E5 25              	mov	a,?a_main+4+1
  1976  00E2E  B4 06 07           	cbne	a,#low (6),u1251
  1977  00E31  E5 24              	mov	a,?a_main+4
  1978  00E33  B4 00 02           	cbne	a,#high (6),u1251
  1979  00E36  80 02              	jmp	u1250
  1980  00E38                     u1251:
  1981  00E38  80 06              	jmp	l150
  1982  00E3A                     u1250:
  1983  00E3A  75 20  02          	mov	?a_main+0,#high(0+u999)
  1984  00E3D  75 21  7A          	mov	?a_main+0+1,#low(0+u999)
  1985  00E40                     l150:
  1986  00E40  E5 25              	mov	a,?a_main+4+1
  1987  00E42  B4 07 07           	cbne	a,#low (7),u1261
  1988  00E45  E5 24              	mov	a,?a_main+4
  1989  00E47  B4 00 02           	cbne	a,#high (7),u1261
  1990  00E4A  80 02              	jmp	u1260
  1991  00E4C                     u1261:
  1992  00E4C  80 06              	jmp	l151
  1993  00E4E                     u1260:
  1994  00E4E  75 20  02          	mov	?a_main+0,#high(0+u1009)
  1995  00E51  75 21  57          	mov	?a_main+0+1,#low(0+u1009)
  1996  00E54                     l151:
  1997  00E54  E5 25              	mov	a,?a_main+4+1
  1998  00E56  B4 08 07           	cbne	a,#low (8),u1271
  1999  00E59  E5 24              	mov	a,?a_main+4
  2000  00E5B  B4 00 02           	cbne	a,#high (8),u1271
  2001  00E5E  80 02              	jmp	u1270
  2002  00E60                     u1271:
  2003  00E60  80 06              	jmp	l152
  2004  00E62                     u1270:
  2005  00E62  75 20  02          	mov	?a_main+0,#high(0+u1019)
  2006  00E65  75 21  3B          	mov	?a_main+0+1,#low(0+u1019)
  2007  00E68                     l152:
  2008                           ;main.c: 161: if (b == 9) result = "-8    ";
  2009                           
  2010                           	line	161
  2011  00E68  E5 25              	mov	a,?a_main+4+1
  2012  00E6A  B4 09 07           	cbne	a,#low (9),u1281
  2013  00E6D  E5 24              	mov	a,?a_main+4
  2014  00E6F  B4 00 02           	cbne	a,#high (9),u1281
  2015  00E72  80 02              	jmp	u1280
  2016  00E74                     u1281:
  2017  00E74  80 06              	jmp	l153
  2018  00E76                     u1280:
  2019  00E76  75 20  02          	mov	?a_main+0,#high(0+u1029)
  2020  00E79  75 21  2D          	mov	?a_main+0+1,#low(0+u1029)
  2021  00E7C                     l153:
  2022                           	line	162
  2023  00E7C                     l143:
  2024                           ;main.c: 162: }
  2025                           
  2026                           ;main.c: 163: if(a == 2)
  2027                           
  2028                           	line	163
  2029  00E7C  E5 23              	mov	a,?a_main+2+1
  2030  00E7E  B4 02 07           	cbne	a,#low (2),u1291
  2031  00E81  E5 22              	mov	a,?a_main+2
  2032  00E83  B4 00 02           	cbne	a,#high (2),u1291
  2033  00E86  80 03              	jmp	u1290
  2034  00E88                     u1291:
  2035  00E88  02 0F4F            	jmp	l154
  2036  00E8B                     u1290:
  2037                           ;main.c: 164: {
  2038                           
  2039                           ;main.c: 165: if (b == 0) result = "2     "; if 
                                 (b == 1) result = "1     "; if (b == 2) result =
                                  "0     ";
  2040                           
  2041                           	line	165
  2042  00E8B  E5 25              	mov	a,?a_main+4+1
  2043  00E8D  45 24              	orl	a,?a_main+4
  2044  00E8F  70 02              	bnz	u1301
  2045  00E91  80 02              	jmp	u1300
  2046  00E93                     u1301:
  2047  00E93  80 06              	jmp	l155
  2048  00E95                     u1300:
  2049  00E95  75 20  03          	mov	?a_main+0,#high(0+u1039)
  2050  00E98  75 21  30          	mov	?a_main+0+1,#low(0+u1039)
  2051  00E9B                     l155:
  2052  00E9B  E5 25              	mov	a,?a_main+4+1
  2053  00E9D  B4 01 07           	cbne	a,#low (1),u1311
  2054  00EA0  E5 24              	mov	a,?a_main+4
  2055  00EA2  B4 00 02           	cbne	a,#high (1),u1311
  2056  00EA5  80 02              	jmp	u1310
  2057  00EA7                     u1311:
  2058  00EA7  80 06              	jmp	l156
  2059  00EA9                     u1310:
  2060  00EA9  75 20  03          	mov	?a_main+0,#high(0+u1049)
  2061  00EAC  75 21  37          	mov	?a_main+0+1,#low(0+u1049)
  2062  00EAF                     l156:
  2063  00EAF  E5 25              	mov	a,?a_main+4+1
  2064  00EB1  B4 02 07           	cbne	a,#low (2),u1321
  2065  00EB4  E5 24              	mov	a,?a_main+4
  2066  00EB6  B4 00 02           	cbne	a,#high (2),u1321
  2067  00EB9  80 02              	jmp	u1320
  2068  00EBB                     u1321:
  2069  00EBB  80 06              	jmp	l157
  2070  00EBD                     u1320:
  2071  00EBD  75 20  03          	mov	?a_main+0,#high(0+u1059)
  2072  00EC0  75 21  3E          	mov	?a_main+0+1,#low(0+u1059)
  2073  00EC3                     l157:
  2074                           ;main.c: 166: if (b == 3) result = "-1    "; if 
                                 (b == 4) result = "-2    "; if (b == 5) result =
                                  "-3    ";
  2075                           
  2076                           	line	166
  2077  00EC3  E5 25              	mov	a,?a_main+4+1
  2078  00EC5  B4 03 07           	cbne	a,#low (3),u1331
  2079  00EC8  E5 24              	mov	a,?a_main+4
  2080  00ECA  B4 00 02           	cbne	a,#high (3),u1331
  2081  00ECD  80 02              	jmp	u1330
  2082  00ECF                     u1331:
  2083  00ECF  80 06              	jmp	l158
  2084  00ED1                     u1330:
  2085  00ED1  75 20  02          	mov	?a_main+0,#high(0+u1069)
  2086  00ED4  75 21  DC          	mov	?a_main+0+1,#low(0+u1069)
  2087  00ED7                     l158:
  2088  00ED7  E5 25              	mov	a,?a_main+4+1
  2089  00ED9  B4 04 07           	cbne	a,#low (4),u1341
  2090  00EDC  E5 24              	mov	a,?a_main+4
  2091  00EDE  B4 00 02           	cbne	a,#high (4),u1341
  2092  00EE1  80 02              	jmp	u1340
  2093  00EE3                     u1341:
  2094  00EE3  80 06              	jmp	l159
  2095  00EE5                     u1340:
  2096  00EE5  75 20  02          	mov	?a_main+0,#high(0+u1079)
  2097  00EE8  75 21  C7          	mov	?a_main+0+1,#low(0+u1079)
  2098  00EEB                     l159:
  2099  00EEB  E5 25              	mov	a,?a_main+4+1
  2100  00EED  B4 05 07           	cbne	a,#low (5),u1351
  2101  00EF0  E5 24              	mov	a,?a_main+4
  2102  00EF2  B4 00 02           	cbne	a,#high (5),u1351
  2103  00EF5  80 02              	jmp	u1350
  2104  00EF7                     u1351:
  2105  00EF7  80 06              	jmp	l160
  2106  00EF9                     u1350:
  2107  00EF9  75 20  02          	mov	?a_main+0,#high(0+u1089)
  2108  00EFC  75 21  AB          	mov	?a_main+0+1,#low(0+u1089)
  2109  00EFF                     l160:
  2110                           ;main.c: 167: if (b == 6) result = "-4    "; if 
                                 (b == 7) result = "-5    "; if (b == 8) result =
                                  "-6    ";
  2111                           
  2112                           	line	167
  2113  00EFF  E5 25              	mov	a,?a_main+4+1
  2114  00F01  B4 06 07           	cbne	a,#low (6),u1361
  2115  00F04  E5 24              	mov	a,?a_main+4
  2116  00F06  B4 00 02           	cbne	a,#high (6),u1361
  2117  00F09  80 02              	jmp	u1360
  2118  00F0B                     u1361:
  2119  00F0B  80 06              	jmp	l161
  2120  00F0D                     u1360:
  2121  00F0D  75 20  02          	mov	?a_main+0,#high(0+u1099)
  2122  00F10  75 21  96          	mov	?a_main+0+1,#low(0+u1099)
  2123  00F13                     l161:
  2124  00F13  E5 25              	mov	a,?a_main+4+1
  2125  00F15  B4 07 07           	cbne	a,#low (7),u1371
  2126  00F18  E5 24              	mov	a,?a_main+4
  2127  00F1A  B4 00 02           	cbne	a,#high (7),u1371
  2128  00F1D  80 02              	jmp	u1370
  2129  00F1F                     u1371:
  2130  00F1F  80 06              	jmp	l162
  2131  00F21                     u1370:
  2132  00F21  75 20  02          	mov	?a_main+0,#high(0+u1109)
  2133  00F24  75 21  7A          	mov	?a_main+0+1,#low(0+u1109)
  2134  00F27                     l162:
  2135  00F27  E5 25              	mov	a,?a_main+4+1
  2136  00F29  B4 08 07           	cbne	a,#low (8),u1381
  2137  00F2C  E5 24              	mov	a,?a_main+4
  2138  00F2E  B4 00 02           	cbne	a,#high (8),u1381
  2139  00F31  80 02              	jmp	u1380
  2140  00F33                     u1381:
  2141  00F33  80 06              	jmp	l163
  2142  00F35                     u1380:
  2143  00F35  75 20  02          	mov	?a_main+0,#high(0+u1119)
  2144  00F38  75 21  57          	mov	?a_main+0+1,#low(0+u1119)
  2145  00F3B                     l163:
  2146                           ;main.c: 168: if (b == 9) result = "-7    ";
  2147                           
  2148                           	line	168
  2149  00F3B  E5 25              	mov	a,?a_main+4+1
  2150  00F3D  B4 09 07           	cbne	a,#low (9),u1391
  2151  00F40  E5 24              	mov	a,?a_main+4
  2152  00F42  B4 00 02           	cbne	a,#high (9),u1391
  2153  00F45  80 02              	jmp	u1390
  2154  00F47                     u1391:
  2155  00F47  80 06              	jmp	l164
  2156  00F49                     u1390:
  2157  00F49  75 20  02          	mov	?a_main+0,#high(0+u1129)
  2158  00F4C  75 21  3B          	mov	?a_main+0+1,#low(0+u1129)
  2159  00F4F                     l164:
  2160                           	line	169
  2161  00F4F                     l154:
  2162                           ;main.c: 169: }
  2163                           
  2164                           ;main.c: 170: if(a == 3)
  2165                           
  2166                           	line	170
  2167  00F4F  E5 23              	mov	a,?a_main+2+1
  2168  00F51  B4 03 07           	cbne	a,#low (3),u1401
  2169  00F54  E5 22              	mov	a,?a_main+2
  2170  00F56  B4 00 02           	cbne	a,#high (3),u1401
  2171  00F59  80 03              	jmp	u1400
  2172  00F5B                     u1401:
  2173  00F5B  02 1022            	jmp	l165
  2174  00F5E                     u1400:
  2175                           ;main.c: 171: {
  2176                           
  2177                           ;main.c: 172: if (b == 0) result = "3     "; if 
                                 (b == 1) result = "2     "; if (b == 2) result =
                                  "1     ";
  2178                           
  2179                           	line	172
  2180  00F5E  E5 25              	mov	a,?a_main+4+1
  2181  00F60  45 24              	orl	a,?a_main+4
  2182  00F62  70 02              	bnz	u1411
  2183  00F64  80 02              	jmp	u1410
  2184  00F66                     u1411:
  2185  00F66  80 06              	jmp	l166
  2186  00F68                     u1410:
  2187  00F68  75 20  03          	mov	?a_main+0,#high(0+u1139)
  2188  00F6B  75 21  29          	mov	?a_main+0+1,#low(0+u1139)
  2189  00F6E                     l166:
  2190  00F6E  E5 25              	mov	a,?a_main+4+1
  2191  00F70  B4 01 07           	cbne	a,#low (1),u1421
  2192  00F73  E5 24              	mov	a,?a_main+4
  2193  00F75  B4 00 02           	cbne	a,#high (1),u1421
  2194  00F78  80 02              	jmp	u1420
  2195  00F7A                     u1421:
  2196  00F7A  80 06              	jmp	l167
  2197  00F7C                     u1420:
  2198  00F7C  75 20  03          	mov	?a_main+0,#high(0+u1149)
  2199  00F7F  75 21  30          	mov	?a_main+0+1,#low(0+u1149)
  2200  00F82                     l167:
  2201  00F82  E5 25              	mov	a,?a_main+4+1
  2202  00F84  B4 02 07           	cbne	a,#low (2),u1431
  2203  00F87  E5 24              	mov	a,?a_main+4
  2204  00F89  B4 00 02           	cbne	a,#high (2),u1431
  2205  00F8C  80 02              	jmp	u1430
  2206  00F8E                     u1431:
  2207  00F8E  80 06              	jmp	l168
  2208  00F90                     u1430:
  2209  00F90  75 20  03          	mov	?a_main+0,#high(0+u1159)
  2210  00F93  75 21  37          	mov	?a_main+0+1,#low(0+u1159)
  2211  00F96                     l168:
  2212                           ;main.c: 173: if (b == 3) result = "0     "; if 
                                 (b == 4) result = "-1    "; if (b == 5) result =
                                  "-2    ";
  2213                           
  2214                           	line	173
  2215  00F96  E5 25              	mov	a,?a_main+4+1
  2216  00F98  B4 03 07           	cbne	a,#low (3),u1441
  2217  00F9B  E5 24              	mov	a,?a_main+4
  2218  00F9D  B4 00 02           	cbne	a,#high (3),u1441
  2219  00FA0  80 02              	jmp	u1440
  2220  00FA2                     u1441:
  2221  00FA2  80 06              	jmp	l169
  2222  00FA4                     u1440:
  2223  00FA4  75 20  03          	mov	?a_main+0,#high(0+u1169)
  2224  00FA7  75 21  3E          	mov	?a_main+0+1,#low(0+u1169)
  2225  00FAA                     l169:
  2226  00FAA  E5 25              	mov	a,?a_main+4+1
  2227  00FAC  B4 04 07           	cbne	a,#low (4),u1451
  2228  00FAF  E5 24              	mov	a,?a_main+4
  2229  00FB1  B4 00 02           	cbne	a,#high (4),u1451
  2230  00FB4  80 02              	jmp	u1450
  2231  00FB6                     u1451:
  2232  00FB6  80 06              	jmp	l170
  2233  00FB8                     u1450:
  2234  00FB8  75 20  02          	mov	?a_main+0,#high(0+u1179)
  2235  00FBB  75 21  DC          	mov	?a_main+0+1,#low(0+u1179)
  2236  00FBE                     l170:
  2237  00FBE  E5 25              	mov	a,?a_main+4+1
  2238  00FC0  B4 05 07           	cbne	a,#low (5),u1461
  2239  00FC3  E5 24              	mov	a,?a_main+4
  2240  00FC5  B4 00 02           	cbne	a,#high (5),u1461
  2241  00FC8  80 02              	jmp	u1460
  2242  00FCA                     u1461:
  2243  00FCA  80 06              	jmp	l171
  2244  00FCC                     u1460:
  2245  00FCC  75 20  02          	mov	?a_main+0,#high(0+u1189)
  2246  00FCF  75 21  C7          	mov	?a_main+0+1,#low(0+u1189)
  2247  00FD2                     l171:
  2248                           ;main.c: 174: if (b == 6) result = "-3    "; if 
                                 (b == 7) result = "-4    "; if (b == 8) result =
                                  "-5    ";
  2249                           
  2250                           	line	174
  2251  00FD2  E5 25              	mov	a,?a_main+4+1
  2252  00FD4  B4 06 07           	cbne	a,#low (6),u1471
  2253  00FD7  E5 24              	mov	a,?a_main+4
  2254  00FD9  B4 00 02           	cbne	a,#high (6),u1471
  2255  00FDC  80 02              	jmp	u1470
  2256  00FDE                     u1471:
  2257  00FDE  80 06              	jmp	l172
  2258  00FE0                     u1470:
  2259  00FE0  75 20  02          	mov	?a_main+0,#high(0+u1199)
  2260  00FE3  75 21  AB          	mov	?a_main+0+1,#low(0+u1199)
  2261  00FE6                     l172:
  2262  00FE6  E5 25              	mov	a,?a_main+4+1
  2263  00FE8  B4 07 07           	cbne	a,#low (7),u1481
  2264  00FEB  E5 24              	mov	a,?a_main+4
  2265  00FED  B4 00 02           	cbne	a,#high (7),u1481
  2266  00FF0  80 02              	jmp	u1480
  2267  00FF2                     u1481:
  2268  00FF2  80 06              	jmp	l173
  2269  00FF4                     u1480:
  2270  00FF4  75 20  02          	mov	?a_main+0,#high(0+u1209)
  2271  00FF7  75 21  96          	mov	?a_main+0+1,#low(0+u1209)
  2272  00FFA                     l173:
  2273  00FFA  E5 25              	mov	a,?a_main+4+1
  2274  00FFC  B4 08 07           	cbne	a,#low (8),u1491
  2275  00FFF  E5 24              	mov	a,?a_main+4
  2276  01001  B4 00 02           	cbne	a,#high (8),u1491
  2277  01004  80 02              	jmp	u1490
  2278  01006                     u1491:
  2279  01006  80 06              	jmp	l174
  2280  01008                     u1490:
  2281  01008  75 20  02          	mov	?a_main+0,#high(0+u1219)
  2282  0100B  75 21  7A          	mov	?a_main+0+1,#low(0+u1219)
  2283  0100E                     l174:
  2284                           ;main.c: 175: if (b == 9) result = "-6    ";
  2285                           
  2286                           	line	175
  2287  0100E  E5 25              	mov	a,?a_main+4+1
  2288  01010  B4 09 07           	cbne	a,#low (9),u1501
  2289  01013  E5 24              	mov	a,?a_main+4
  2290  01015  B4 00 02           	cbne	a,#high (9),u1501
  2291  01018  80 02              	jmp	u1500
  2292  0101A                     u1501:
  2293  0101A  80 06              	jmp	l175
  2294  0101C                     u1500:
  2295  0101C  75 20  02          	mov	?a_main+0,#high(0+u1229)
  2296  0101F  75 21  57          	mov	?a_main+0+1,#low(0+u1229)
  2297  01022                     l175:
  2298                           	line	176
  2299  01022                     l165:
  2300                           ;main.c: 176: }
  2301                           
  2302                           ;main.c: 177: if(a == 4)
  2303                           
  2304                           	line	177
  2305  01022  E5 23              	mov	a,?a_main+2+1
  2306  01024  B4 04 07           	cbne	a,#low (4),u1511
  2307  01027  E5 22              	mov	a,?a_main+2
  2308  01029  B4 00 02           	cbne	a,#high (4),u1511
  2309  0102C  80 03              	jmp	u1510
  2310  0102E                     u1511:
  2311  0102E  02 10F5            	jmp	l176
  2312  01031                     u1510:
  2313                           ;main.c: 178: {
  2314                           
  2315                           ;main.c: 179: if (b == 0) result = "4     "; if 
                                 (b == 1) result = "3     "; if (b == 2) result =
                                  "2     ";
  2316                           
  2317                           	line	179
  2318  01031  E5 25              	mov	a,?a_main+4+1
  2319  01033  45 24              	orl	a,?a_main+4
  2320  01035  70 02              	bnz	u1521
  2321  01037  80 02              	jmp	u1520
  2322  01039                     u1521:
  2323  01039  80 06              	jmp	l177
  2324  0103B                     u1520:
  2325  0103B  75 20  03          	mov	?a_main+0,#high(0+u1239)
  2326  0103E  75 21  22          	mov	?a_main+0+1,#low(0+u1239)
  2327  01041                     l177:
  2328  01041  E5 25              	mov	a,?a_main+4+1
  2329  01043  B4 01 07           	cbne	a,#low (1),u1531
  2330  01046  E5 24              	mov	a,?a_main+4
  2331  01048  B4 00 02           	cbne	a,#high (1),u1531
  2332  0104B  80 02              	jmp	u1530
  2333  0104D                     u1531:
  2334  0104D  80 06              	jmp	l178
  2335  0104F                     u1530:
  2336  0104F  75 20  03          	mov	?a_main+0,#high(0+u1249)
  2337  01052  75 21  29          	mov	?a_main+0+1,#low(0+u1249)
  2338  01055                     l178:
  2339  01055  E5 25              	mov	a,?a_main+4+1
  2340  01057  B4 02 07           	cbne	a,#low (2),u1541
  2341  0105A  E5 24              	mov	a,?a_main+4
  2342  0105C  B4 00 02           	cbne	a,#high (2),u1541
  2343  0105F  80 02              	jmp	u1540
  2344  01061                     u1541:
  2345  01061  80 06              	jmp	l179
  2346  01063                     u1540:
  2347  01063  75 20  03          	mov	?a_main+0,#high(0+u1259)
  2348  01066  75 21  30          	mov	?a_main+0+1,#low(0+u1259)
  2349  01069                     l179:
  2350                           ;main.c: 180: if (b == 3) result = "1     "; if 
                                 (b == 4) result = "0     "; if (b == 5) result =
                                  "-1    ";
  2351                           
  2352                           	line	180
  2353  01069  E5 25              	mov	a,?a_main+4+1
  2354  0106B  B4 03 07           	cbne	a,#low (3),u1551
  2355  0106E  E5 24              	mov	a,?a_main+4
  2356  01070  B4 00 02           	cbne	a,#high (3),u1551
  2357  01073  80 02              	jmp	u1550
  2358  01075                     u1551:
  2359  01075  80 06              	jmp	l180
  2360  01077                     u1550:
  2361  01077  75 20  03          	mov	?a_main+0,#high(0+u1269)
  2362  0107A  75 21  37          	mov	?a_main+0+1,#low(0+u1269)
  2363  0107D                     l180:
  2364  0107D  E5 25              	mov	a,?a_main+4+1
  2365  0107F  B4 04 07           	cbne	a,#low (4),u1561
  2366  01082  E5 24              	mov	a,?a_main+4
  2367  01084  B4 00 02           	cbne	a,#high (4),u1561
  2368  01087  80 02              	jmp	u1560
  2369  01089                     u1561:
  2370  01089  80 06              	jmp	l181
  2371  0108B                     u1560:
  2372  0108B  75 20  03          	mov	?a_main+0,#high(0+u1279)
  2373  0108E  75 21  3E          	mov	?a_main+0+1,#low(0+u1279)
  2374  01091                     l181:
  2375  01091  E5 25              	mov	a,?a_main+4+1
  2376  01093  B4 05 07           	cbne	a,#low (5),u1571
  2377  01096  E5 24              	mov	a,?a_main+4
  2378  01098  B4 00 02           	cbne	a,#high (5),u1571
  2379  0109B  80 02              	jmp	u1570
  2380  0109D                     u1571:
  2381  0109D  80 06              	jmp	l182
  2382  0109F                     u1570:
  2383  0109F  75 20  02          	mov	?a_main+0,#high(0+u1289)
  2384  010A2  75 21  DC          	mov	?a_main+0+1,#low(0+u1289)
  2385  010A5                     l182:
  2386                           ;main.c: 181: if (b == 6) result = "-2    "; if 
                                 (b == 7) result = "-3    "; if (b == 8) result =
                                  "-4    ";
  2387                           
  2388                           	line	181
  2389  010A5  E5 25              	mov	a,?a_main+4+1
  2390  010A7  B4 06 07           	cbne	a,#low (6),u1581
  2391  010AA  E5 24              	mov	a,?a_main+4
  2392  010AC  B4 00 02           	cbne	a,#high (6),u1581
  2393  010AF  80 02              	jmp	u1580
  2394  010B1                     u1581:
  2395  010B1  80 06              	jmp	l183
  2396  010B3                     u1580:
  2397  010B3  75 20  02          	mov	?a_main+0,#high(0+u1299)
  2398  010B6  75 21  C7          	mov	?a_main+0+1,#low(0+u1299)
  2399  010B9                     l183:
  2400  010B9  E5 25              	mov	a,?a_main+4+1
  2401  010BB  B4 07 07           	cbne	a,#low (7),u1591
  2402  010BE  E5 24              	mov	a,?a_main+4
  2403  010C0  B4 00 02           	cbne	a,#high (7),u1591
  2404  010C3  80 02              	jmp	u1590
  2405  010C5                     u1591:
  2406  010C5  80 06              	jmp	l184
  2407  010C7                     u1590:
  2408  010C7  75 20  02          	mov	?a_main+0,#high(0+u1309)
  2409  010CA  75 21  AB          	mov	?a_main+0+1,#low(0+u1309)
  2410  010CD                     l184:
  2411  010CD  E5 25              	mov	a,?a_main+4+1
  2412  010CF  B4 08 07           	cbne	a,#low (8),u1601
  2413  010D2  E5 24              	mov	a,?a_main+4
  2414  010D4  B4 00 02           	cbne	a,#high (8),u1601
  2415  010D7  80 02              	jmp	u1600
  2416  010D9                     u1601:
  2417  010D9  80 06              	jmp	l185
  2418  010DB                     u1600:
  2419  010DB  75 20  02          	mov	?a_main+0,#high(0+u1319)
  2420  010DE  75 21  96          	mov	?a_main+0+1,#low(0+u1319)
  2421  010E1                     l185:
  2422                           ;main.c: 182: if (b == 9) result = "-5    ";
  2423                           
  2424                           	line	182
  2425  010E1  E5 25              	mov	a,?a_main+4+1
  2426  010E3  B4 09 07           	cbne	a,#low (9),u1611
  2427  010E6  E5 24              	mov	a,?a_main+4
  2428  010E8  B4 00 02           	cbne	a,#high (9),u1611
  2429  010EB  80 02              	jmp	u1610
  2430  010ED                     u1611:
  2431  010ED  80 06              	jmp	l186
  2432  010EF                     u1610:
  2433  010EF  75 20  02          	mov	?a_main+0,#high(0+u1329)
  2434  010F2  75 21  7A          	mov	?a_main+0+1,#low(0+u1329)
  2435  010F5                     l186:
  2436                           	line	183
  2437  010F5                     l176:
  2438                           ;main.c: 183: }
  2439                           
  2440                           ;main.c: 184: if(a == 5)
  2441                           
  2442                           	line	184
  2443  010F5  E5 23              	mov	a,?a_main+2+1
  2444  010F7  B4 05 07           	cbne	a,#low (5),u1621
  2445  010FA  E5 22              	mov	a,?a_main+2
  2446  010FC  B4 00 02           	cbne	a,#high (5),u1621
  2447  010FF  80 03              	jmp	u1620
  2448  01101                     u1621:
  2449  01101  02 11C8            	jmp	l187
  2450  01104                     u1620:
  2451                           ;main.c: 185: {
  2452                           
  2453                           ;main.c: 186: if (b == 0) result = "5     "; if 
                                 (b == 1) result = "4     "; if (b == 2) result =
                                  "3     ";
  2454                           
  2455                           	line	186
  2456  01104  E5 25              	mov	a,?a_main+4+1
  2457  01106  45 24              	orl	a,?a_main+4
  2458  01108  70 02              	bnz	u1631
  2459  0110A  80 02              	jmp	u1630
  2460  0110C                     u1631:
  2461  0110C  80 06              	jmp	l188
  2462  0110E                     u1630:
  2463  0110E  75 20  03          	mov	?a_main+0,#high(0+u1339)
  2464  01111  75 21  1B          	mov	?a_main+0+1,#low(0+u1339)
  2465  01114                     l188:
  2466  01114  E5 25              	mov	a,?a_main+4+1
  2467  01116  B4 01 07           	cbne	a,#low (1),u1641
  2468  01119  E5 24              	mov	a,?a_main+4
  2469  0111B  B4 00 02           	cbne	a,#high (1),u1641
  2470  0111E  80 02              	jmp	u1640
  2471  01120                     u1641:
  2472  01120  80 06              	jmp	l189
  2473  01122                     u1640:
  2474  01122  75 20  03          	mov	?a_main+0,#high(0+u1349)
  2475  01125  75 21  22          	mov	?a_main+0+1,#low(0+u1349)
  2476  01128                     l189:
  2477  01128  E5 25              	mov	a,?a_main+4+1
  2478  0112A  B4 02 07           	cbne	a,#low (2),u1651
  2479  0112D  E5 24              	mov	a,?a_main+4
  2480  0112F  B4 00 02           	cbne	a,#high (2),u1651
  2481  01132  80 02              	jmp	u1650
  2482  01134                     u1651:
  2483  01134  80 06              	jmp	l190
  2484  01136                     u1650:
  2485  01136  75 20  03          	mov	?a_main+0,#high(0+u1359)
  2486  01139  75 21  29          	mov	?a_main+0+1,#low(0+u1359)
  2487  0113C                     l190:
  2488                           ;main.c: 187: if (b == 3) result = "2     "; if 
                                 (b == 4) result = "1     "; if (b == 5) result =
                                  "0     ";
  2489                           
  2490                           	line	187
  2491  0113C  E5 25              	mov	a,?a_main+4+1
  2492  0113E  B4 03 07           	cbne	a,#low (3),u1661
  2493  01141  E5 24              	mov	a,?a_main+4
  2494  01143  B4 00 02           	cbne	a,#high (3),u1661
  2495  01146  80 02              	jmp	u1660
  2496  01148                     u1661:
  2497  01148  80 06              	jmp	l191
  2498  0114A                     u1660:
  2499  0114A  75 20  03          	mov	?a_main+0,#high(0+u1369)
  2500  0114D  75 21  30          	mov	?a_main+0+1,#low(0+u1369)
  2501  01150                     l191:
  2502  01150  E5 25              	mov	a,?a_main+4+1
  2503  01152  B4 04 07           	cbne	a,#low (4),u1671
  2504  01155  E5 24              	mov	a,?a_main+4
  2505  01157  B4 00 02           	cbne	a,#high (4),u1671
  2506  0115A  80 02              	jmp	u1670
  2507  0115C                     u1671:
  2508  0115C  80 06              	jmp	l192
  2509  0115E                     u1670:
  2510  0115E  75 20  03          	mov	?a_main+0,#high(0+u1379)
  2511  01161  75 21  37          	mov	?a_main+0+1,#low(0+u1379)
  2512  01164                     l192:
  2513  01164  E5 25              	mov	a,?a_main+4+1
  2514  01166  B4 05 07           	cbne	a,#low (5),u1681
  2515  01169  E5 24              	mov	a,?a_main+4
  2516  0116B  B4 00 02           	cbne	a,#high (5),u1681
  2517  0116E  80 02              	jmp	u1680
  2518  01170                     u1681:
  2519  01170  80 06              	jmp	l193
  2520  01172                     u1680:
  2521  01172  75 20  03          	mov	?a_main+0,#high(0+u1389)
  2522  01175  75 21  3E          	mov	?a_main+0+1,#low(0+u1389)
  2523  01178                     l193:
  2524                           ;main.c: 188: if (b == 6) result = "-1    "; if 
                                 (b == 7) result = "-2    "; if (b == 8) result =
                                  "-3    ";
  2525                           
  2526                           	line	188
  2527  01178  E5 25              	mov	a,?a_main+4+1
  2528  0117A  B4 06 07           	cbne	a,#low (6),u1691
  2529  0117D  E5 24              	mov	a,?a_main+4
  2530  0117F  B4 00 02           	cbne	a,#high (6),u1691
  2531  01182  80 02              	jmp	u1690
  2532  01184                     u1691:
  2533  01184  80 06              	jmp	l194
  2534  01186                     u1690:
  2535  01186  75 20  02          	mov	?a_main+0,#high(0+u1399)
  2536  01189  75 21  DC          	mov	?a_main+0+1,#low(0+u1399)
  2537  0118C                     l194:
  2538  0118C  E5 25              	mov	a,?a_main+4+1
  2539  0118E  B4 07 07           	cbne	a,#low (7),u1701
  2540  01191  E5 24              	mov	a,?a_main+4
  2541  01193  B4 00 02           	cbne	a,#high (7),u1701
  2542  01196  80 02              	jmp	u1700
  2543  01198                     u1701:
  2544  01198  80 06              	jmp	l195
  2545  0119A                     u1700:
  2546  0119A  75 20  02          	mov	?a_main+0,#high(0+u1409)
  2547  0119D  75 21  C7          	mov	?a_main+0+1,#low(0+u1409)
  2548  011A0                     l195:
  2549  011A0  E5 25              	mov	a,?a_main+4+1
  2550  011A2  B4 08 07           	cbne	a,#low (8),u1711
  2551  011A5  E5 24              	mov	a,?a_main+4
  2552  011A7  B4 00 02           	cbne	a,#high (8),u1711
  2553  011AA  80 02              	jmp	u1710
  2554  011AC                     u1711:
  2555  011AC  80 06              	jmp	l196
  2556  011AE                     u1710:
  2557  011AE  75 20  02          	mov	?a_main+0,#high(0+u1419)
  2558  011B1  75 21  AB          	mov	?a_main+0+1,#low(0+u1419)
  2559  011B4                     l196:
  2560                           ;main.c: 189: if (b == 9) result = "-4    ";
  2561                           
  2562                           	line	189
  2563  011B4  E5 25              	mov	a,?a_main+4+1
  2564  011B6  B4 09 07           	cbne	a,#low (9),u1721
  2565  011B9  E5 24              	mov	a,?a_main+4
  2566  011BB  B4 00 02           	cbne	a,#high (9),u1721
  2567  011BE  80 02              	jmp	u1720
  2568  011C0                     u1721:
  2569  011C0  80 06              	jmp	l197
  2570  011C2                     u1720:
  2571  011C2  75 20  02          	mov	?a_main+0,#high(0+u1429)
  2572  011C5  75 21  96          	mov	?a_main+0+1,#low(0+u1429)
  2573  011C8                     l197:
  2574                           	line	190
  2575  011C8                     l187:
  2576                           ;main.c: 190: }
  2577                           
  2578                           ;main.c: 191: if(a == 6)
  2579                           
  2580                           	line	191
  2581  011C8  E5 23              	mov	a,?a_main+2+1
  2582  011CA  B4 06 07           	cbne	a,#low (6),u1731
  2583  011CD  E5 22              	mov	a,?a_main+2
  2584  011CF  B4 00 02           	cbne	a,#high (6),u1731
  2585  011D2  80 03              	jmp	u1730
  2586  011D4                     u1731:
  2587  011D4  02 129B            	jmp	l198
  2588  011D7                     u1730:
  2589                           ;main.c: 192: {
  2590                           
  2591                           ;main.c: 193: if (b == 0) result = "6     "; if 
                                 (b == 1) result = "5     "; if (b == 2) result =
                                  "4     ";
  2592                           
  2593                           	line	193
  2594  011D7  E5 25              	mov	a,?a_main+4+1
  2595  011D9  45 24              	orl	a,?a_main+4
  2596  011DB  70 02              	bnz	u1741
  2597  011DD  80 02              	jmp	u1740
  2598  011DF                     u1741:
  2599  011DF  80 06              	jmp	l199
  2600  011E1                     u1740:
  2601  011E1  75 20  03          	mov	?a_main+0,#high(0+u1439)
  2602  011E4  75 21  14          	mov	?a_main+0+1,#low(0+u1439)
  2603  011E7                     l199:
  2604  011E7  E5 25              	mov	a,?a_main+4+1
  2605  011E9  B4 01 07           	cbne	a,#low (1),u1751
  2606  011EC  E5 24              	mov	a,?a_main+4
  2607  011EE  B4 00 02           	cbne	a,#high (1),u1751
  2608  011F1  80 02              	jmp	u1750
  2609  011F3                     u1751:
  2610  011F3  80 06              	jmp	l200
  2611  011F5                     u1750:
  2612  011F5  75 20  03          	mov	?a_main+0,#high(0+u1449)
  2613  011F8  75 21  1B          	mov	?a_main+0+1,#low(0+u1449)
  2614  011FB                     l200:
  2615  011FB  E5 25              	mov	a,?a_main+4+1
  2616  011FD  B4 02 07           	cbne	a,#low (2),u1761
  2617  01200  E5 24              	mov	a,?a_main+4
  2618  01202  B4 00 02           	cbne	a,#high (2),u1761
  2619  01205  80 02              	jmp	u1760
  2620  01207                     u1761:
  2621  01207  80 06              	jmp	l201
  2622  01209                     u1760:
  2623  01209  75 20  03          	mov	?a_main+0,#high(0+u1459)
  2624  0120C  75 21  22          	mov	?a_main+0+1,#low(0+u1459)
  2625  0120F                     l201:
  2626                           ;main.c: 194: if (b == 3) result = "3     "; if 
                                 (b == 4) result = "2     "; if (b == 5) result =
                                  "1     ";
  2627                           
  2628                           	line	194
  2629  0120F  E5 25              	mov	a,?a_main+4+1
  2630  01211  B4 03 07           	cbne	a,#low (3),u1771
  2631  01214  E5 24              	mov	a,?a_main+4
  2632  01216  B4 00 02           	cbne	a,#high (3),u1771
  2633  01219  80 02              	jmp	u1770
  2634  0121B                     u1771:
  2635  0121B  80 06              	jmp	l202
  2636  0121D                     u1770:
  2637  0121D  75 20  03          	mov	?a_main+0,#high(0+u1469)
  2638  01220  75 21  29          	mov	?a_main+0+1,#low(0+u1469)
  2639  01223                     l202:
  2640  01223  E5 25              	mov	a,?a_main+4+1
  2641  01225  B4 04 07           	cbne	a,#low (4),u1781
  2642  01228  E5 24              	mov	a,?a_main+4
  2643  0122A  B4 00 02           	cbne	a,#high (4),u1781
  2644  0122D  80 02              	jmp	u1780
  2645  0122F                     u1781:
  2646  0122F  80 06              	jmp	l203
  2647  01231                     u1780:
  2648  01231  75 20  03          	mov	?a_main+0,#high(0+u1479)
  2649  01234  75 21  30          	mov	?a_main+0+1,#low(0+u1479)
  2650  01237                     l203:
  2651  01237  E5 25              	mov	a,?a_main+4+1
  2652  01239  B4 05 07           	cbne	a,#low (5),u1791
  2653  0123C  E5 24              	mov	a,?a_main+4
  2654  0123E  B4 00 02           	cbne	a,#high (5),u1791
  2655  01241  80 02              	jmp	u1790
  2656  01243                     u1791:
  2657  01243  80 06              	jmp	l204
  2658  01245                     u1790:
  2659  01245  75 20  03          	mov	?a_main+0,#high(0+u1489)
  2660  01248  75 21  37          	mov	?a_main+0+1,#low(0+u1489)
  2661  0124B                     l204:
  2662                           ;main.c: 195: if (b == 6) result = "0     "; if 
                                 (b == 7) result = "-1    "; if (b == 8) result =
                                  "-2    ";
  2663                           
  2664                           	line	195
  2665  0124B  E5 25              	mov	a,?a_main+4+1
  2666  0124D  B4 06 07           	cbne	a,#low (6),u1801
  2667  01250  E5 24              	mov	a,?a_main+4
  2668  01252  B4 00 02           	cbne	a,#high (6),u1801
  2669  01255  80 02              	jmp	u1800
  2670  01257                     u1801:
  2671  01257  80 06              	jmp	l205
  2672  01259                     u1800:
  2673  01259  75 20  03          	mov	?a_main+0,#high(0+u1499)
  2674  0125C  75 21  3E          	mov	?a_main+0+1,#low(0+u1499)
  2675  0125F                     l205:
  2676  0125F  E5 25              	mov	a,?a_main+4+1
  2677  01261  B4 07 07           	cbne	a,#low (7),u1811
  2678  01264  E5 24              	mov	a,?a_main+4
  2679  01266  B4 00 02           	cbne	a,#high (7),u1811
  2680  01269  80 02              	jmp	u1810
  2681  0126B                     u1811:
  2682  0126B  80 06              	jmp	l206
  2683  0126D                     u1810:
  2684  0126D  75 20  02          	mov	?a_main+0,#high(0+u1509)
  2685  01270  75 21  DC          	mov	?a_main+0+1,#low(0+u1509)
  2686  01273                     l206:
  2687  01273  E5 25              	mov	a,?a_main+4+1
  2688  01275  B4 08 07           	cbne	a,#low (8),u1821
  2689  01278  E5 24              	mov	a,?a_main+4
  2690  0127A  B4 00 02           	cbne	a,#high (8),u1821
  2691  0127D  80 02              	jmp	u1820
  2692  0127F                     u1821:
  2693  0127F  80 06              	jmp	l207
  2694  01281                     u1820:
  2695  01281  75 20  02          	mov	?a_main+0,#high(0+u1519)
  2696  01284  75 21  C7          	mov	?a_main+0+1,#low(0+u1519)
  2697  01287                     l207:
  2698                           ;main.c: 196: if (b == 9) result = "-3    ";
  2699                           
  2700                           	line	196
  2701  01287  E5 25              	mov	a,?a_main+4+1
  2702  01289  B4 09 07           	cbne	a,#low (9),u1831
  2703  0128C  E5 24              	mov	a,?a_main+4
  2704  0128E  B4 00 02           	cbne	a,#high (9),u1831
  2705  01291  80 02              	jmp	u1830
  2706  01293                     u1831:
  2707  01293  80 06              	jmp	l208
  2708  01295                     u1830:
  2709  01295  75 20  02          	mov	?a_main+0,#high(0+u1529)
  2710  01298  75 21  AB          	mov	?a_main+0+1,#low(0+u1529)
  2711  0129B                     l208:
  2712                           	line	197
  2713  0129B                     l198:
  2714                           ;main.c: 197: }
  2715                           
  2716                           ;main.c: 198: if(a == 7)
  2717                           
  2718                           	line	198
  2719  0129B  E5 23              	mov	a,?a_main+2+1
  2720  0129D  B4 07 07           	cbne	a,#low (7),u1841
  2721  012A0  E5 22              	mov	a,?a_main+2
  2722  012A2  B4 00 02           	cbne	a,#high (7),u1841
  2723  012A5  80 03              	jmp	u1840
  2724  012A7                     u1841:
  2725  012A7  02 136E            	jmp	l209
  2726  012AA                     u1840:
  2727                           ;main.c: 199: {
  2728                           
  2729                           ;main.c: 200: if (b == 0) result = "7     "; if 
                                 (b == 1) result = "6     "; if (b == 2) result =
                                  "5     ";
  2730                           
  2731                           	line	200
  2732  012AA  E5 25              	mov	a,?a_main+4+1
  2733  012AC  45 24              	orl	a,?a_main+4
  2734  012AE  70 02              	bnz	u1851
  2735  012B0  80 02              	jmp	u1850
  2736  012B2                     u1851:
  2737  012B2  80 06              	jmp	l210
  2738  012B4                     u1850:
  2739  012B4  75 20  03          	mov	?a_main+0,#high(0+u1539)
  2740  012B7  75 21  0D          	mov	?a_main+0+1,#low(0+u1539)
  2741  012BA                     l210:
  2742  012BA  E5 25              	mov	a,?a_main+4+1
  2743  012BC  B4 01 07           	cbne	a,#low (1),u1861
  2744  012BF  E5 24              	mov	a,?a_main+4
  2745  012C1  B4 00 02           	cbne	a,#high (1),u1861
  2746  012C4  80 02              	jmp	u1860
  2747  012C6                     u1861:
  2748  012C6  80 06              	jmp	l211
  2749  012C8                     u1860:
  2750  012C8  75 20  03          	mov	?a_main+0,#high(0+u1549)
  2751  012CB  75 21  14          	mov	?a_main+0+1,#low(0+u1549)
  2752  012CE                     l211:
  2753  012CE  E5 25              	mov	a,?a_main+4+1
  2754  012D0  B4 02 07           	cbne	a,#low (2),u1871
  2755  012D3  E5 24              	mov	a,?a_main+4
  2756  012D5  B4 00 02           	cbne	a,#high (2),u1871
  2757  012D8  80 02              	jmp	u1870
  2758  012DA                     u1871:
  2759  012DA  80 06              	jmp	l212
  2760  012DC                     u1870:
  2761  012DC  75 20  03          	mov	?a_main+0,#high(0+u1559)
  2762  012DF  75 21  1B          	mov	?a_main+0+1,#low(0+u1559)
  2763  012E2                     l212:
  2764                           ;main.c: 201: if (b == 3) result = "4     "; if 
                                 (b == 4) result = "3     "; if (b == 5) result =
                                  "2     ";
  2765                           
  2766                           	line	201
  2767  012E2  E5 25              	mov	a,?a_main+4+1
  2768  012E4  B4 03 07           	cbne	a,#low (3),u1881
  2769  012E7  E5 24              	mov	a,?a_main+4
  2770  012E9  B4 00 02           	cbne	a,#high (3),u1881
  2771  012EC  80 02              	jmp	u1880
  2772  012EE                     u1881:
  2773  012EE  80 06              	jmp	l213
  2774  012F0                     u1880:
  2775  012F0  75 20  03          	mov	?a_main+0,#high(0+u1569)
  2776  012F3  75 21  22          	mov	?a_main+0+1,#low(0+u1569)
  2777  012F6                     l213:
  2778  012F6  E5 25              	mov	a,?a_main+4+1
  2779  012F8  B4 04 07           	cbne	a,#low (4),u1891
  2780  012FB  E5 24              	mov	a,?a_main+4
  2781  012FD  B4 00 02           	cbne	a,#high (4),u1891
  2782  01300  80 02              	jmp	u1890
  2783  01302                     u1891:
  2784  01302  80 06              	jmp	l214
  2785  01304                     u1890:
  2786  01304  75 20  03          	mov	?a_main+0,#high(0+u1579)
  2787  01307  75 21  29          	mov	?a_main+0+1,#low(0+u1579)
  2788  0130A                     l214:
  2789  0130A  E5 25              	mov	a,?a_main+4+1
  2790  0130C  B4 05 07           	cbne	a,#low (5),u1901
  2791  0130F  E5 24              	mov	a,?a_main+4
  2792  01311  B4 00 02           	cbne	a,#high (5),u1901
  2793  01314  80 02              	jmp	u1900
  2794  01316                     u1901:
  2795  01316  80 06              	jmp	l215
  2796  01318                     u1900:
  2797  01318  75 20  03          	mov	?a_main+0,#high(0+u1589)
  2798  0131B  75 21  30          	mov	?a_main+0+1,#low(0+u1589)
  2799  0131E                     l215:
  2800                           ;main.c: 202: if (b == 6) result = "1     "; if 
                                 (b == 7) result = "0     "; if (b == 8) result =
                                  "-1    ";
  2801                           
  2802                           	line	202
  2803  0131E  E5 25              	mov	a,?a_main+4+1
  2804  01320  B4 06 07           	cbne	a,#low (6),u1911
  2805  01323  E5 24              	mov	a,?a_main+4
  2806  01325  B4 00 02           	cbne	a,#high (6),u1911
  2807  01328  80 02              	jmp	u1910
  2808  0132A                     u1911:
  2809  0132A  80 06              	jmp	l216
  2810  0132C                     u1910:
  2811  0132C  75 20  03          	mov	?a_main+0,#high(0+u1599)
  2812  0132F  75 21  37          	mov	?a_main+0+1,#low(0+u1599)
  2813  01332                     l216:
  2814  01332  E5 25              	mov	a,?a_main+4+1
  2815  01334  B4 07 07           	cbne	a,#low (7),u1921
  2816  01337  E5 24              	mov	a,?a_main+4
  2817  01339  B4 00 02           	cbne	a,#high (7),u1921
  2818  0133C  80 02              	jmp	u1920
  2819  0133E                     u1921:
  2820  0133E  80 06              	jmp	l217
  2821  01340                     u1920:
  2822  01340  75 20  03          	mov	?a_main+0,#high(0+u1609)
  2823  01343  75 21  3E          	mov	?a_main+0+1,#low(0+u1609)
  2824  01346                     l217:
  2825  01346  E5 25              	mov	a,?a_main+4+1
  2826  01348  B4 08 07           	cbne	a,#low (8),u1931
  2827  0134B  E5 24              	mov	a,?a_main+4
  2828  0134D  B4 00 02           	cbne	a,#high (8),u1931
  2829  01350  80 02              	jmp	u1930
  2830  01352                     u1931:
  2831  01352  80 06              	jmp	l218
  2832  01354                     u1930:
  2833  01354  75 20  02          	mov	?a_main+0,#high(0+u1619)
  2834  01357  75 21  DC          	mov	?a_main+0+1,#low(0+u1619)
  2835  0135A                     l218:
  2836                           ;main.c: 203: if (b == 9) result = "-2    ";
  2837                           
  2838                           	line	203
  2839  0135A  E5 25              	mov	a,?a_main+4+1
  2840  0135C  B4 09 07           	cbne	a,#low (9),u1941
  2841  0135F  E5 24              	mov	a,?a_main+4
  2842  01361  B4 00 02           	cbne	a,#high (9),u1941
  2843  01364  80 02              	jmp	u1940
  2844  01366                     u1941:
  2845  01366  80 06              	jmp	l219
  2846  01368                     u1940:
  2847  01368  75 20  02          	mov	?a_main+0,#high(0+u1629)
  2848  0136B  75 21  C7          	mov	?a_main+0+1,#low(0+u1629)
  2849  0136E                     l219:
  2850                           	line	204
  2851  0136E                     l209:
  2852                           	line	205
  2853  0136E                     l131:
  2854                           ;main.c: 204: }
  2855                           
  2856                           ;main.c: 205: }
  2857                           
  2858                           ;main.c: 206: if(flag == 3)
  2859                           
  2860                           	line	206
  2861  0136E  E5 27              	mov	a,?a_main+6+1
  2862  01370  B4 03 07           	cbne	a,#low (3),u1951
  2863  01373  E5 26              	mov	a,?a_main+6
  2864  01375  B4 00 02           	cbne	a,#high (3),u1951
  2865  01378  80 03              	jmp	u1950
  2866  0137A                     u1951:
  2867  0137A  02 1952            	jmp	l220
  2868  0137D                     u1950:
  2869                           ;main.c: 207: {
  2870                           
  2871                           ;main.c: 208: if(a == 0) result = "0     ";
  2872                           
  2873                           	line	208
  2874  0137D  E5 23              	mov	a,?a_main+2+1
  2875  0137F  45 22              	orl	a,?a_main+2
  2876  01381  70 02              	bnz	u1961
  2877  01383  80 02              	jmp	u1960
  2878  01385                     u1961:
  2879  01385  80 06              	jmp	l221
  2880  01387                     u1960:
  2881  01387  75 20  03          	mov	?a_main+0,#high(0+u1639)
  2882  0138A  75 21  3E          	mov	?a_main+0+1,#low(0+u1639)
  2883  0138D                     l221:
  2884                           ;main.c: 209: if(a == 1)
  2885                           
  2886                           	line	209
  2887  0138D  E5 23              	mov	a,?a_main+2+1
  2888  0138F  B4 01 07           	cbne	a,#low (1),u1971
  2889  01392  E5 22              	mov	a,?a_main+2
  2890  01394  B4 00 02           	cbne	a,#high (1),u1971
  2891  01397  80 03              	jmp	u1970
  2892  01399                     u1971:
  2893  01399  02 1460            	jmp	l222
  2894  0139C                     u1970:
  2895                           ;main.c: 210: {
  2896                           
  2897                           ;main.c: 211: if (b == 0) result = "0     "; if 
                                 (b == 1) result = "1     "; if (b == 2) result =
                                  "2     ";
  2898                           
  2899                           	line	211
  2900  0139C  E5 25              	mov	a,?a_main+4+1
  2901  0139E  45 24              	orl	a,?a_main+4
  2902  013A0  70 02              	bnz	u1981
  2903  013A2  80 02              	jmp	u1980
  2904  013A4                     u1981:
  2905  013A4  80 06              	jmp	l223
  2906  013A6                     u1980:
  2907  013A6  75 20  03          	mov	?a_main+0,#high(0+u1649)
  2908  013A9  75 21  3E          	mov	?a_main+0+1,#low(0+u1649)
  2909  013AC                     l223:
  2910  013AC  E5 25              	mov	a,?a_main+4+1
  2911  013AE  B4 01 07           	cbne	a,#low (1),u1991
  2912  013B1  E5 24              	mov	a,?a_main+4
  2913  013B3  B4 00 02           	cbne	a,#high (1),u1991
  2914  013B6  80 02              	jmp	u1990
  2915  013B8                     u1991:
  2916  013B8  80 06              	jmp	l224
  2917  013BA                     u1990:
  2918  013BA  75 20  03          	mov	?a_main+0,#high(0+u1659)
  2919  013BD  75 21  37          	mov	?a_main+0+1,#low(0+u1659)
  2920  013C0                     l224:
  2921  013C0  E5 25              	mov	a,?a_main+4+1
  2922  013C2  B4 02 07           	cbne	a,#low (2),u2001
  2923  013C5  E5 24              	mov	a,?a_main+4
  2924  013C7  B4 00 02           	cbne	a,#high (2),u2001
  2925  013CA  80 02              	jmp	u2000
  2926  013CC                     u2001:
  2927  013CC  80 06              	jmp	l225
  2928  013CE                     u2000:
  2929  013CE  75 20  03          	mov	?a_main+0,#high(0+u1669)
  2930  013D1  75 21  30          	mov	?a_main+0+1,#low(0+u1669)
  2931  013D4                     l225:
  2932                           ;main.c: 212: if (b == 3) result = "3     "; if 
                                 (b == 4) result = "4     "; if (b == 5) result =
                                  "5     ";
  2933                           
  2934                           	line	212
  2935  013D4  E5 25              	mov	a,?a_main+4+1
  2936  013D6  B4 03 07           	cbne	a,#low (3),u2011
  2937  013D9  E5 24              	mov	a,?a_main+4
  2938  013DB  B4 00 02           	cbne	a,#high (3),u2011
  2939  013DE  80 02              	jmp	u2010
  2940  013E0                     u2011:
  2941  013E0  80 06              	jmp	l226
  2942  013E2                     u2010:
  2943  013E2  75 20  03          	mov	?a_main+0,#high(0+u1679)
  2944  013E5  75 21  29          	mov	?a_main+0+1,#low(0+u1679)
  2945  013E8                     l226:
  2946  013E8  E5 25              	mov	a,?a_main+4+1
  2947  013EA  B4 04 07           	cbne	a,#low (4),u2021
  2948  013ED  E5 24              	mov	a,?a_main+4
  2949  013EF  B4 00 02           	cbne	a,#high (4),u2021
  2950  013F2  80 02              	jmp	u2020
  2951  013F4                     u2021:
  2952  013F4  80 06              	jmp	l227
  2953  013F6                     u2020:
  2954  013F6  75 20  03          	mov	?a_main+0,#high(0+u1689)
  2955  013F9  75 21  22          	mov	?a_main+0+1,#low(0+u1689)
  2956  013FC                     l227:
  2957  013FC  E5 25              	mov	a,?a_main+4+1
  2958  013FE  B4 05 07           	cbne	a,#low (5),u2031
  2959  01401  E5 24              	mov	a,?a_main+4
  2960  01403  B4 00 02           	cbne	a,#high (5),u2031
  2961  01406  80 02              	jmp	u2030
  2962  01408                     u2031:
  2963  01408  80 06              	jmp	l228
  2964  0140A                     u2030:
  2965  0140A  75 20  03          	mov	?a_main+0,#high(0+u1699)
  2966  0140D  75 21  1B          	mov	?a_main+0+1,#low(0+u1699)
  2967  01410                     l228:
  2968                           ;main.c: 213: if (b == 6) result = "6     "; if 
                                 (b == 7) result = "7     "; if (b == 8) result =
                                  "8     ";
  2969                           
  2970                           	line	213
  2971  01410  E5 25              	mov	a,?a_main+4+1
  2972  01412  B4 06 07           	cbne	a,#low (6),u2041
  2973  01415  E5 24              	mov	a,?a_main+4
  2974  01417  B4 00 02           	cbne	a,#high (6),u2041
  2975  0141A  80 02              	jmp	u2040
  2976  0141C                     u2041:
  2977  0141C  80 06              	jmp	l229
  2978  0141E                     u2040:
  2979  0141E  75 20  03          	mov	?a_main+0,#high(0+u1709)
  2980  01421  75 21  14          	mov	?a_main+0+1,#low(0+u1709)
  2981  01424                     l229:
  2982  01424  E5 25              	mov	a,?a_main+4+1
  2983  01426  B4 07 07           	cbne	a,#low (7),u2051
  2984  01429  E5 24              	mov	a,?a_main+4
  2985  0142B  B4 00 02           	cbne	a,#high (7),u2051
  2986  0142E  80 02              	jmp	u2050
  2987  01430                     u2051:
  2988  01430  80 06              	jmp	l230
  2989  01432                     u2050:
  2990  01432  75 20  03          	mov	?a_main+0,#high(0+u1719)
  2991  01435  75 21  0D          	mov	?a_main+0+1,#low(0+u1719)
  2992  01438                     l230:
  2993  01438  E5 25              	mov	a,?a_main+4+1
  2994  0143A  B4 08 07           	cbne	a,#low (8),u2061
  2995  0143D  E5 24              	mov	a,?a_main+4
  2996  0143F  B4 00 02           	cbne	a,#high (8),u2061
  2997  01442  80 02              	jmp	u2060
  2998  01444                     u2061:
  2999  01444  80 06              	jmp	l231
  3000  01446                     u2060:
  3001  01446  75 20  03          	mov	?a_main+0,#high(0+u1729)
  3002  01449  75 21  06          	mov	?a_main+0+1,#low(0+u1729)
  3003  0144C                     l231:
  3004                           ;main.c: 214: if (b == 9) result = "9     ";
  3005                           
  3006                           	line	214
  3007  0144C  E5 25              	mov	a,?a_main+4+1
  3008  0144E  B4 09 07           	cbne	a,#low (9),u2071
  3009  01451  E5 24              	mov	a,?a_main+4
  3010  01453  B4 00 02           	cbne	a,#high (9),u2071
  3011  01456  80 02              	jmp	u2070
  3012  01458                     u2071:
  3013  01458  80 06              	jmp	l232
  3014  0145A                     u2070:
  3015  0145A  75 20  02          	mov	?a_main+0,#high(0+u1739)
  3016  0145D  75 21  FF          	mov	?a_main+0+1,#low(0+u1739)
  3017  01460                     l232:
  3018                           	line	215
  3019  01460                     l222:
  3020                           ;main.c: 215: }
  3021                           
  3022                           ;main.c: 216: if(a == 2)
  3023                           
  3024                           	line	216
  3025  01460  E5 23              	mov	a,?a_main+2+1
  3026  01462  B4 02 07           	cbne	a,#low (2),u2081
  3027  01465  E5 22              	mov	a,?a_main+2
  3028  01467  B4 00 02           	cbne	a,#high (2),u2081
  3029  0146A  80 03              	jmp	u2080
  3030  0146C                     u2081:
  3031  0146C  02 1533            	jmp	l233
  3032  0146F                     u2080:
  3033                           ;main.c: 217: {
  3034                           
  3035                           ;main.c: 218: if (b == 0) result = "0     "; if 
                                 (b == 1) result = "2     "; if (b == 2) result =
                                  "4     ";
  3036                           
  3037                           	line	218
  3038  0146F  E5 25              	mov	a,?a_main+4+1
  3039  01471  45 24              	orl	a,?a_main+4
  3040  01473  70 02              	bnz	u2091
  3041  01475  80 02              	jmp	u2090
  3042  01477                     u2091:
  3043  01477  80 06              	jmp	l234
  3044  01479                     u2090:
  3045  01479  75 20  03          	mov	?a_main+0,#high(0+u1749)
  3046  0147C  75 21  3E          	mov	?a_main+0+1,#low(0+u1749)
  3047  0147F                     l234:
  3048  0147F  E5 25              	mov	a,?a_main+4+1
  3049  01481  B4 01 07           	cbne	a,#low (1),u2101
  3050  01484  E5 24              	mov	a,?a_main+4
  3051  01486  B4 00 02           	cbne	a,#high (1),u2101
  3052  01489  80 02              	jmp	u2100
  3053  0148B                     u2101:
  3054  0148B  80 06              	jmp	l235
  3055  0148D                     u2100:
  3056  0148D  75 20  03          	mov	?a_main+0,#high(0+u1759)
  3057  01490  75 21  30          	mov	?a_main+0+1,#low(0+u1759)
  3058  01493                     l235:
  3059  01493  E5 25              	mov	a,?a_main+4+1
  3060  01495  B4 02 07           	cbne	a,#low (2),u2111
  3061  01498  E5 24              	mov	a,?a_main+4
  3062  0149A  B4 00 02           	cbne	a,#high (2),u2111
  3063  0149D  80 02              	jmp	u2110
  3064  0149F                     u2111:
  3065  0149F  80 06              	jmp	l236
  3066  014A1                     u2110:
  3067  014A1  75 20  03          	mov	?a_main+0,#high(0+u1769)
  3068  014A4  75 21  22          	mov	?a_main+0+1,#low(0+u1769)
  3069  014A7                     l236:
  3070                           ;main.c: 219: if (b == 3) result = "6     "; if 
                                 (b == 4) result = "8     "; if (b == 5) result =
                                  "10    ";
  3071                           
  3072                           	line	219
  3073  014A7  E5 25              	mov	a,?a_main+4+1
  3074  014A9  B4 03 07           	cbne	a,#low (3),u2121
  3075  014AC  E5 24              	mov	a,?a_main+4
  3076  014AE  B4 00 02           	cbne	a,#high (3),u2121
  3077  014B1  80 02              	jmp	u2120
  3078  014B3                     u2121:
  3079  014B3  80 06              	jmp	l237
  3080  014B5                     u2120:
  3081  014B5  75 20  03          	mov	?a_main+0,#high(0+u1779)
  3082  014B8  75 21  14          	mov	?a_main+0+1,#low(0+u1779)
  3083  014BB                     l237:
  3084  014BB  E5 25              	mov	a,?a_main+4+1
  3085  014BD  B4 04 07           	cbne	a,#low (4),u2131
  3086  014C0  E5 24              	mov	a,?a_main+4
  3087  014C2  B4 00 02           	cbne	a,#high (4),u2131
  3088  014C5  80 02              	jmp	u2130
  3089  014C7                     u2131:
  3090  014C7  80 06              	jmp	l238
  3091  014C9                     u2130:
  3092  014C9  75 20  03          	mov	?a_main+0,#high(0+u1789)
  3093  014CC  75 21  06          	mov	?a_main+0+1,#low(0+u1789)
  3094  014CF                     l238:
  3095  014CF  E5 25              	mov	a,?a_main+4+1
  3096  014D1  B4 05 07           	cbne	a,#low (5),u2141
  3097  014D4  E5 24              	mov	a,?a_main+4
  3098  014D6  B4 00 02           	cbne	a,#high (5),u2141
  3099  014D9  80 02              	jmp	u2140
  3100  014DB                     u2141:
  3101  014DB  80 06              	jmp	l239
  3102  014DD                     u2140:
  3103  014DD  75 20  02          	mov	?a_main+0,#high(0+u1799)
  3104  014E0  75 21  F8          	mov	?a_main+0+1,#low(0+u1799)
  3105  014E3                     l239:
  3106                           ;main.c: 220: if (b == 6) result = "12    "; if 
                                 (b == 7) result = "14    "; if (b == 8) result =
                                  "16    ";
  3107                           
  3108                           	line	220
  3109  014E3  E5 25              	mov	a,?a_main+4+1
  3110  014E5  B4 06 07           	cbne	a,#low (6),u2151
  3111  014E8  E5 24              	mov	a,?a_main+4
  3112  014EA  B4 00 02           	cbne	a,#high (6),u2151
  3113  014ED  80 02              	jmp	u2150
  3114  014EF                     u2151:
  3115  014EF  80 06              	jmp	l240
  3116  014F1                     u2150:
  3117  014F1  75 20  02          	mov	?a_main+0,#high(0+u1809)
  3118  014F4  75 21  C0          	mov	?a_main+0+1,#low(0+u1809)
  3119  014F7                     l240:
  3120  014F7  E5 25              	mov	a,?a_main+4+1
  3121  014F9  B4 07 07           	cbne	a,#low (7),u2161
  3122  014FC  E5 24              	mov	a,?a_main+4
  3123  014FE  B4 00 02           	cbne	a,#high (7),u2161
  3124  01501  80 02              	jmp	u2160
  3125  01503                     u2161:
  3126  01503  80 06              	jmp	l241
  3127  01505                     u2160:
  3128  01505  75 20  02          	mov	?a_main+0,#high(0+u1819)
  3129  01508  75 21  8F          	mov	?a_main+0+1,#low(0+u1819)
  3130  0150B                     l241:
  3131  0150B  E5 25              	mov	a,?a_main+4+1
  3132  0150D  B4 08 07           	cbne	a,#low (8),u2171
  3133  01510  E5 24              	mov	a,?a_main+4
  3134  01512  B4 00 02           	cbne	a,#high (8),u2171
  3135  01515  80 02              	jmp	u2170
  3136  01517                     u2171:
  3137  01517  80 06              	jmp	l242
  3138  01519                     u2170:
  3139  01519  75 20  02          	mov	?a_main+0,#high(0+u1829)
  3140  0151C  75 21  50          	mov	?a_main+0+1,#low(0+u1829)
  3141  0151F                     l242:
  3142                           ;main.c: 221: if (b == 9) result = "18    ";
  3143                           
  3144                           	line	221
  3145  0151F  E5 25              	mov	a,?a_main+4+1
  3146  01521  B4 09 07           	cbne	a,#low (9),u2181
  3147  01524  E5 24              	mov	a,?a_main+4
  3148  01526  B4 00 02           	cbne	a,#high (9),u2181
  3149  01529  80 02              	jmp	u2180
  3150  0152B                     u2181:
  3151  0152B  80 06              	jmp	l243
  3152  0152D                     u2180:
  3153  0152D  75 20  02          	mov	?a_main+0,#high(0+u1839)
  3154  01530  75 21  26          	mov	?a_main+0+1,#low(0+u1839)
  3155  01533                     l243:
  3156                           	line	222
  3157  01533                     l233:
  3158                           ;main.c: 222: }
  3159                           
  3160                           ;main.c: 223: if(a == 3)
  3161                           
  3162                           	line	223
  3163  01533  E5 23              	mov	a,?a_main+2+1
  3164  01535  B4 03 07           	cbne	a,#low (3),u2191
  3165  01538  E5 22              	mov	a,?a_main+2
  3166  0153A  B4 00 02           	cbne	a,#high (3),u2191
  3167  0153D  80 03              	jmp	u2190
  3168  0153F                     u2191:
  3169  0153F  02 1606            	jmp	l244
  3170  01542                     u2190:
  3171                           ;main.c: 224: {
  3172                           
  3173                           ;main.c: 225: if (b == 0) result = "0     "; if 
                                 (b == 1) result = "3     "; if (b == 2) result =
                                  "6     ";
  3174                           
  3175                           	line	225
  3176  01542  E5 25              	mov	a,?a_main+4+1
  3177  01544  45 24              	orl	a,?a_main+4
  3178  01546  70 02              	bnz	u2201
  3179  01548  80 02              	jmp	u2200
  3180  0154A                     u2201:
  3181  0154A  80 06              	jmp	l245
  3182  0154C                     u2200:
  3183  0154C  75 20  03          	mov	?a_main+0,#high(0+u1849)
  3184  0154F  75 21  3E          	mov	?a_main+0+1,#low(0+u1849)
  3185  01552                     l245:
  3186  01552  E5 25              	mov	a,?a_main+4+1
  3187  01554  B4 01 07           	cbne	a,#low (1),u2211
  3188  01557  E5 24              	mov	a,?a_main+4
  3189  01559  B4 00 02           	cbne	a,#high (1),u2211
  3190  0155C  80 02              	jmp	u2210
  3191  0155E                     u2211:
  3192  0155E  80 06              	jmp	l246
  3193  01560                     u2210:
  3194  01560  75 20  03          	mov	?a_main+0,#high(0+u1859)
  3195  01563  75 21  29          	mov	?a_main+0+1,#low(0+u1859)
  3196  01566                     l246:
  3197  01566  E5 25              	mov	a,?a_main+4+1
  3198  01568  B4 02 07           	cbne	a,#low (2),u2221
  3199  0156B  E5 24              	mov	a,?a_main+4
  3200  0156D  B4 00 02           	cbne	a,#high (2),u2221
  3201  01570  80 02              	jmp	u2220
  3202  01572                     u2221:
  3203  01572  80 06              	jmp	l247
  3204  01574                     u2220:
  3205  01574  75 20  03          	mov	?a_main+0,#high(0+u1869)
  3206  01577  75 21  14          	mov	?a_main+0+1,#low(0+u1869)
  3207  0157A                     l247:
  3208                           ;main.c: 226: if (b == 3) result = "9     "; if 
                                 (b == 4) result = "12    "; if (b == 5) result =
                                  "15    ";
  3209                           
  3210                           	line	226
  3211  0157A  E5 25              	mov	a,?a_main+4+1
  3212  0157C  B4 03 07           	cbne	a,#low (3),u2231
  3213  0157F  E5 24              	mov	a,?a_main+4
  3214  01581  B4 00 02           	cbne	a,#high (3),u2231
  3215  01584  80 02              	jmp	u2230
  3216  01586                     u2231:
  3217  01586  80 06              	jmp	l248
  3218  01588                     u2230:
  3219  01588  75 20  02          	mov	?a_main+0,#high(0+u1879)
  3220  0158B  75 21  FF          	mov	?a_main+0+1,#low(0+u1879)
  3221  0158E                     l248:
  3222  0158E  E5 25              	mov	a,?a_main+4+1
  3223  01590  B4 04 07           	cbne	a,#low (4),u2241
  3224  01593  E5 24              	mov	a,?a_main+4
  3225  01595  B4 00 02           	cbne	a,#high (4),u2241
  3226  01598  80 02              	jmp	u2240
  3227  0159A                     u2241:
  3228  0159A  80 06              	jmp	l249
  3229  0159C                     u2240:
  3230  0159C  75 20  02          	mov	?a_main+0,#high(0+u1889)
  3231  0159F  75 21  C0          	mov	?a_main+0+1,#low(0+u1889)
  3232  015A2                     l249:
  3233  015A2  E5 25              	mov	a,?a_main+4+1
  3234  015A4  B4 05 07           	cbne	a,#low (5),u2251
  3235  015A7  E5 24              	mov	a,?a_main+4
  3236  015A9  B4 00 02           	cbne	a,#high (5),u2251
  3237  015AC  80 02              	jmp	u2250
  3238  015AE                     u2251:
  3239  015AE  80 06              	jmp	l250
  3240  015B0                     u2250:
  3241  015B0  75 20  02          	mov	?a_main+0,#high(0+u1899)
  3242  015B3  75 21  73          	mov	?a_main+0+1,#low(0+u1899)
  3243  015B6                     l250:
  3244                           ;main.c: 227: if (b == 6) result = "18    "; if 
                                 (b == 7) result = "21    "; if (b == 8) result =
                                  "24    ";
  3245                           
  3246                           	line	227
  3247  015B6  E5 25              	mov	a,?a_main+4+1
  3248  015B8  B4 06 07           	cbne	a,#low (6),u2261
  3249  015BB  E5 24              	mov	a,?a_main+4
  3250  015BD  B4 00 02           	cbne	a,#high (6),u2261
  3251  015C0  80 02              	jmp	u2260
  3252  015C2                     u2261:
  3253  015C2  80 06              	jmp	l251
  3254  015C4                     u2260:
  3255  015C4  75 20  02          	mov	?a_main+0,#high(0+u1909)
  3256  015C7  75 21  26          	mov	?a_main+0+1,#low(0+u1909)
  3257  015CA                     l251:
  3258  015CA  E5 25              	mov	a,?a_main+4+1
  3259  015CC  B4 07 07           	cbne	a,#low (7),u2271
  3260  015CF  E5 24              	mov	a,?a_main+4
  3261  015D1  B4 00 02           	cbne	a,#high (7),u2271
  3262  015D4  80 02              	jmp	u2270
  3263  015D6                     u2271:
  3264  015D6  80 06              	jmp	l252
  3265  015D8                     u2270:
  3266  015D8  75 20  02          	mov	?a_main+0,#high(0+u1919)
  3267  015DB  75 21  CE          	mov	?a_main+0+1,#low(0+u1919)
  3268  015DE                     l252:
  3269  015DE  E5 25              	mov	a,?a_main+4+1
  3270  015E0  B4 08 07           	cbne	a,#low (8),u2281
  3271  015E3  E5 24              	mov	a,?a_main+4
  3272  015E5  B4 00 02           	cbne	a,#high (8),u2281
  3273  015E8  80 02              	jmp	u2280
  3274  015EA                     u2281:
  3275  015EA  80 06              	jmp	l253
  3276  015EC                     u2280:
  3277  015EC  75 20  02          	mov	?a_main+0,#high(0+u1929)
  3278  015EF  75 21  88          	mov	?a_main+0+1,#low(0+u1929)
  3279  015F2                     l253:
  3280                           ;main.c: 228: if (b == 9) result = "27    ";
  3281                           
  3282                           	line	228
  3283  015F2  E5 25              	mov	a,?a_main+4+1
  3284  015F4  B4 09 07           	cbne	a,#low (9),u2291
  3285  015F7  E5 24              	mov	a,?a_main+4
  3286  015F9  B4 00 02           	cbne	a,#high (9),u2291
  3287  015FC  80 02              	jmp	u2290
  3288  015FE                     u2291:
  3289  015FE  80 06              	jmp	l254
  3290  01600                     u2290:
  3291  01600  75 20  02          	mov	?a_main+0,#high(0+u1939)
  3292  01603  75 21  34          	mov	?a_main+0+1,#low(0+u1939)
  3293  01606                     l254:
  3294                           	line	229
  3295  01606                     l244:
  3296                           ;main.c: 229: }
  3297                           
  3298                           ;main.c: 230: if(a == 4)
  3299                           
  3300                           	line	230
  3301  01606  E5 23              	mov	a,?a_main+2+1
  3302  01608  B4 04 07           	cbne	a,#low (4),u2301
  3303  0160B  E5 22              	mov	a,?a_main+2
  3304  0160D  B4 00 02           	cbne	a,#high (4),u2301
  3305  01610  80 03              	jmp	u2300
  3306  01612                     u2301:
  3307  01612  02 16D9            	jmp	l255
  3308  01615                     u2300:
  3309                           ;main.c: 231: {
  3310                           
  3311                           ;main.c: 232: if (b == 0) result = "0     "; if 
                                 (b == 1) result = "4     "; if (b == 2) result =
                                  "8     ";
  3312                           
  3313                           	line	232
  3314  01615  E5 25              	mov	a,?a_main+4+1
  3315  01617  45 24              	orl	a,?a_main+4
  3316  01619  70 02              	bnz	u2311
  3317  0161B  80 02              	jmp	u2310
  3318  0161D                     u2311:
  3319  0161D  80 06              	jmp	l256
  3320  0161F                     u2310:
  3321  0161F  75 20  03          	mov	?a_main+0,#high(0+u1949)
  3322  01622  75 21  3E          	mov	?a_main+0+1,#low(0+u1949)
  3323  01625                     l256:
  3324  01625  E5 25              	mov	a,?a_main+4+1
  3325  01627  B4 01 07           	cbne	a,#low (1),u2321
  3326  0162A  E5 24              	mov	a,?a_main+4
  3327  0162C  B4 00 02           	cbne	a,#high (1),u2321
  3328  0162F  80 02              	jmp	u2320
  3329  01631                     u2321:
  3330  01631  80 06              	jmp	l257
  3331  01633                     u2320:
  3332  01633  75 20  03          	mov	?a_main+0,#high(0+u1959)
  3333  01636  75 21  22          	mov	?a_main+0+1,#low(0+u1959)
  3334  01639                     l257:
  3335  01639  E5 25              	mov	a,?a_main+4+1
  3336  0163B  B4 02 07           	cbne	a,#low (2),u2331
  3337  0163E  E5 24              	mov	a,?a_main+4
  3338  01640  B4 00 02           	cbne	a,#high (2),u2331
  3339  01643  80 02              	jmp	u2330
  3340  01645                     u2331:
  3341  01645  80 06              	jmp	l258
  3342  01647                     u2330:
  3343  01647  75 20  03          	mov	?a_main+0,#high(0+u1969)
  3344  0164A  75 21  06          	mov	?a_main+0+1,#low(0+u1969)
  3345  0164D                     l258:
  3346                           ;main.c: 233: if (b == 3) result = "12    "; if 
                                 (b == 4) result = "16    "; if (b == 5) result =
                                  "20    ";
  3347                           
  3348                           	line	233
  3349  0164D  E5 25              	mov	a,?a_main+4+1
  3350  0164F  B4 03 07           	cbne	a,#low (3),u2341
  3351  01652  E5 24              	mov	a,?a_main+4
  3352  01654  B4 00 02           	cbne	a,#high (3),u2341
  3353  01657  80 02              	jmp	u2340
  3354  01659                     u2341:
  3355  01659  80 06              	jmp	l259
  3356  0165B                     u2340:
  3357  0165B  75 20  02          	mov	?a_main+0,#high(0+u1979)
  3358  0165E  75 21  C0          	mov	?a_main+0+1,#low(0+u1979)
  3359  01661                     l259:
  3360  01661  E5 25              	mov	a,?a_main+4+1
  3361  01663  B4 04 07           	cbne	a,#low (4),u2351
  3362  01666  E5 24              	mov	a,?a_main+4
  3363  01668  B4 00 02           	cbne	a,#high (4),u2351
  3364  0166B  80 02              	jmp	u2350
  3365  0166D                     u2351:
  3366  0166D  80 06              	jmp	l260
  3367  0166F                     u2350:
  3368  0166F  75 20  02          	mov	?a_main+0,#high(0+u1989)
  3369  01672  75 21  50          	mov	?a_main+0+1,#low(0+u1989)
  3370  01675                     l260:
  3371  01675  E5 25              	mov	a,?a_main+4+1
  3372  01677  B4 05 07           	cbne	a,#low (5),u2361
  3373  0167A  E5 24              	mov	a,?a_main+4
  3374  0167C  B4 00 02           	cbne	a,#high (5),u2361
  3375  0167F  80 02              	jmp	u2360
  3376  01681                     u2361:
  3377  01681  80 06              	jmp	l261
  3378  01683                     u2360:
  3379  01683  75 20  02          	mov	?a_main+0,#high(0+u1999)
  3380  01686  75 21  F1          	mov	?a_main+0+1,#low(0+u1999)
  3381  01689                     l261:
  3382                           ;main.c: 234: if (b == 6) result = "24    "; if 
                                 (b == 7) result = "28    "; if (b == 8) result =
                                  "32    ";
  3383                           
  3384                           	line	234
  3385  01689  E5 25              	mov	a,?a_main+4+1
  3386  0168B  B4 06 07           	cbne	a,#low (6),u2371
  3387  0168E  E5 24              	mov	a,?a_main+4
  3388  01690  B4 00 02           	cbne	a,#high (6),u2371
  3389  01693  80 02              	jmp	u2370
  3390  01695                     u2371:
  3391  01695  80 06              	jmp	l262
  3392  01697                     u2370:
  3393  01697  75 20  02          	mov	?a_main+0,#high(0+u2009)
  3394  0169A  75 21  88          	mov	?a_main+0+1,#low(0+u2009)
  3395  0169D                     l262:
  3396  0169D  E5 25              	mov	a,?a_main+4+1
  3397  0169F  B4 07 07           	cbne	a,#low (7),u2381
  3398  016A2  E5 24              	mov	a,?a_main+4
  3399  016A4  B4 00 02           	cbne	a,#high (7),u2381
  3400  016A7  80 02              	jmp	u2380
  3401  016A9                     u2381:
  3402  016A9  80 06              	jmp	l263
  3403  016AB                     u2380:
  3404  016AB  75 20  02          	mov	?a_main+0,#high(0+u2019)
  3405  016AE  75 21  1F          	mov	?a_main+0+1,#low(0+u2019)
  3406  016B1                     l263:
  3407  016B1  E5 25              	mov	a,?a_main+4+1
  3408  016B3  B4 08 07           	cbne	a,#low (8),u2391
  3409  016B6  E5 24              	mov	a,?a_main+4
  3410  016B8  B4 00 02           	cbne	a,#high (8),u2391
  3411  016BB  80 02              	jmp	u2390
  3412  016BD                     u2391:
  3413  016BD  80 06              	jmp	l264
  3414  016BF                     u2390:
  3415  016BF  75 20  02          	mov	?a_main+0,#high(0+u2029)
  3416  016C2  75 21  B9          	mov	?a_main+0+1,#low(0+u2029)
  3417  016C5                     l264:
  3418                           ;main.c: 235: if (b == 9) result = "36    ";
  3419                           
  3420                           	line	235
  3421  016C5  E5 25              	mov	a,?a_main+4+1
  3422  016C7  B4 09 07           	cbne	a,#low (9),u2401
  3423  016CA  E5 24              	mov	a,?a_main+4
  3424  016CC  B4 00 02           	cbne	a,#high (9),u2401
  3425  016CF  80 02              	jmp	u2400
  3426  016D1                     u2401:
  3427  016D1  80 06              	jmp	l265
  3428  016D3                     u2400:
  3429  016D3  75 20  02          	mov	?a_main+0,#high(0+u2039)
  3430  016D6  75 21  49          	mov	?a_main+0+1,#low(0+u2039)
  3431  016D9                     l265:
  3432                           	line	236
  3433  016D9                     l255:
  3434                           ;main.c: 236: }
  3435                           
  3436                           ;main.c: 237: if(a == 5)
  3437                           
  3438                           	line	237
  3439  016D9  E5 23              	mov	a,?a_main+2+1
  3440  016DB  B4 05 07           	cbne	a,#low (5),u2411
  3441  016DE  E5 22              	mov	a,?a_main+2
  3442  016E0  B4 00 02           	cbne	a,#high (5),u2411
  3443  016E3  80 03              	jmp	u2410
  3444  016E5                     u2411:
  3445  016E5  02 17AC            	jmp	l266
  3446  016E8                     u2410:
  3447                           ;main.c: 238: {
  3448                           
  3449                           ;main.c: 239: if (b == 0) result = "0     "; if 
                                 (b == 1) result = "5     "; if (b == 2) result =
                                  "10    ";
  3450                           
  3451                           	line	239
  3452  016E8  E5 25              	mov	a,?a_main+4+1
  3453  016EA  45 24              	orl	a,?a_main+4
  3454  016EC  70 02              	bnz	u2421
  3455  016EE  80 02              	jmp	u2420
  3456  016F0                     u2421:
  3457  016F0  80 06              	jmp	l267
  3458  016F2                     u2420:
  3459  016F2  75 20  03          	mov	?a_main+0,#high(0+u2049)
  3460  016F5  75 21  3E          	mov	?a_main+0+1,#low(0+u2049)
  3461  016F8                     l267:
  3462  016F8  E5 25              	mov	a,?a_main+4+1
  3463  016FA  B4 01 07           	cbne	a,#low (1),u2431
  3464  016FD  E5 24              	mov	a,?a_main+4
  3465  016FF  B4 00 02           	cbne	a,#high (1),u2431
  3466  01702  80 02              	jmp	u2430
  3467  01704                     u2431:
  3468  01704  80 06              	jmp	l268
  3469  01706                     u2430:
  3470  01706  75 20  03          	mov	?a_main+0,#high(0+u2059)
  3471  01709  75 21  1B          	mov	?a_main+0+1,#low(0+u2059)
  3472  0170C                     l268:
  3473  0170C  E5 25              	mov	a,?a_main+4+1
  3474  0170E  B4 02 07           	cbne	a,#low (2),u2441
  3475  01711  E5 24              	mov	a,?a_main+4
  3476  01713  B4 00 02           	cbne	a,#high (2),u2441
  3477  01716  80 02              	jmp	u2440
  3478  01718                     u2441:
  3479  01718  80 06              	jmp	l269
  3480  0171A                     u2440:
  3481  0171A  75 20  02          	mov	?a_main+0,#high(0+u2069)
  3482  0171D  75 21  F8          	mov	?a_main+0+1,#low(0+u2069)
  3483  01720                     l269:
  3484                           ;main.c: 240: if (b == 3) result = "15    "; if 
                                 (b == 4) result = "20    "; if (b == 5) result =
                                  "25    ";
  3485                           
  3486                           	line	240
  3487  01720  E5 25              	mov	a,?a_main+4+1
  3488  01722  B4 03 07           	cbne	a,#low (3),u2451
  3489  01725  E5 24              	mov	a,?a_main+4
  3490  01727  B4 00 02           	cbne	a,#high (3),u2451
  3491  0172A  80 02              	jmp	u2450
  3492  0172C                     u2451:
  3493  0172C  80 06              	jmp	l270
  3494  0172E                     u2450:
  3495  0172E  75 20  02          	mov	?a_main+0,#high(0+u2079)
  3496  01731  75 21  73          	mov	?a_main+0+1,#low(0+u2079)
  3497  01734                     l270:
  3498  01734  E5 25              	mov	a,?a_main+4+1
  3499  01736  B4 04 07           	cbne	a,#low (4),u2461
  3500  01739  E5 24              	mov	a,?a_main+4
  3501  0173B  B4 00 02           	cbne	a,#high (4),u2461
  3502  0173E  80 02              	jmp	u2460
  3503  01740                     u2461:
  3504  01740  80 06              	jmp	l271
  3505  01742                     u2460:
  3506  01742  75 20  02          	mov	?a_main+0,#high(0+u2089)
  3507  01745  75 21  F1          	mov	?a_main+0+1,#low(0+u2089)
  3508  01748                     l271:
  3509  01748  E5 25              	mov	a,?a_main+4+1
  3510  0174A  B4 05 07           	cbne	a,#low (5),u2471
  3511  0174D  E5 24              	mov	a,?a_main+4
  3512  0174F  B4 00 02           	cbne	a,#high (5),u2471
  3513  01752  80 02              	jmp	u2470
  3514  01754                     u2471:
  3515  01754  80 06              	jmp	l272
  3516  01756                     u2470:
  3517  01756  75 20  02          	mov	?a_main+0,#high(0+u2099)
  3518  01759  75 21  6C          	mov	?a_main+0+1,#low(0+u2099)
  3519  0175C                     l272:
  3520                           ;main.c: 241: if (b == 6) result = "30    "; if 
                                 (b == 7) result = "35    "; if (b == 8) result =
                                  "40    ";
  3521                           
  3522                           	line	241
  3523  0175C  E5 25              	mov	a,?a_main+4+1
  3524  0175E  B4 06 07           	cbne	a,#low (6),u2481
  3525  01761  E5 24              	mov	a,?a_main+4
  3526  01763  B4 00 02           	cbne	a,#high (6),u2481
  3527  01766  80 02              	jmp	u2480
  3528  01768                     u2481:
  3529  01768  80 06              	jmp	l273
  3530  0176A                     u2480:
  3531  0176A  75 20  02          	mov	?a_main+0,#high(0+u2109)
  3532  0176D  75 21  EA          	mov	?a_main+0+1,#low(0+u2109)
  3533  01770                     l273:
  3534  01770  E5 25              	mov	a,?a_main+4+1
  3535  01772  B4 07 07           	cbne	a,#low (7),u2491
  3536  01775  E5 24              	mov	a,?a_main+4
  3537  01777  B4 00 02           	cbne	a,#high (7),u2491
  3538  0177A  80 02              	jmp	u2490
  3539  0177C                     u2491:
  3540  0177C  80 06              	jmp	l274
  3541  0177E                     u2490:
  3542  0177E  75 20  02          	mov	?a_main+0,#high(0+u2119)
  3543  01781  75 21  65          	mov	?a_main+0+1,#low(0+u2119)
  3544  01784                     l274:
  3545  01784  E5 25              	mov	a,?a_main+4+1
  3546  01786  B4 08 07           	cbne	a,#low (8),u2501
  3547  01789  E5 24              	mov	a,?a_main+4
  3548  0178B  B4 00 02           	cbne	a,#high (8),u2501
  3549  0178E  80 02              	jmp	u2500
  3550  01790                     u2501:
  3551  01790  80 06              	jmp	l275
  3552  01792                     u2500:
  3553  01792  75 20  02          	mov	?a_main+0,#high(0+u2129)
  3554  01795  75 21  E3          	mov	?a_main+0+1,#low(0+u2129)
  3555  01798                     l275:
  3556                           ;main.c: 242: if (b == 9) result = "45    ";
  3557                           
  3558                           	line	242
  3559  01798  E5 25              	mov	a,?a_main+4+1
  3560  0179A  B4 09 07           	cbne	a,#low (9),u2511
  3561  0179D  E5 24              	mov	a,?a_main+4
  3562  0179F  B4 00 02           	cbne	a,#high (9),u2511
  3563  017A2  80 02              	jmp	u2510
  3564  017A4                     u2511:
  3565  017A4  80 06              	jmp	l276
  3566  017A6                     u2510:
  3567  017A6  75 20  02          	mov	?a_main+0,#high(0+u2139)
  3568  017A9  75 21  5E          	mov	?a_main+0+1,#low(0+u2139)
  3569  017AC                     l276:
  3570                           	line	243
  3571  017AC                     l266:
  3572                           ;main.c: 243: }
  3573                           
  3574                           ;main.c: 244: if(a == 6)
  3575                           
  3576                           	line	244
  3577  017AC  E5 23              	mov	a,?a_main+2+1
  3578  017AE  B4 06 07           	cbne	a,#low (6),u2521
  3579  017B1  E5 22              	mov	a,?a_main+2
  3580  017B3  B4 00 02           	cbne	a,#high (6),u2521
  3581  017B6  80 03              	jmp	u2520
  3582  017B8                     u2521:
  3583  017B8  02 187F            	jmp	l277
  3584  017BB                     u2520:
  3585                           ;main.c: 245: {
  3586                           
  3587                           ;main.c: 246: if (b == 0) result = "0     "; if 
                                 (b == 1) result = "6     "; if (b == 2) result =
                                  "12    ";
  3588                           
  3589                           	line	246
  3590  017BB  E5 25              	mov	a,?a_main+4+1
  3591  017BD  45 24              	orl	a,?a_main+4
  3592  017BF  70 02              	bnz	u2531
  3593  017C1  80 02              	jmp	u2530
  3594  017C3                     u2531:
  3595  017C3  80 06              	jmp	l278
  3596  017C5                     u2530:
  3597  017C5  75 20  03          	mov	?a_main+0,#high(0+u2149)
  3598  017C8  75 21  3E          	mov	?a_main+0+1,#low(0+u2149)
  3599  017CB                     l278:
  3600  017CB  E5 25              	mov	a,?a_main+4+1
  3601  017CD  B4 01 07           	cbne	a,#low (1),u2541
  3602  017D0  E5 24              	mov	a,?a_main+4
  3603  017D2  B4 00 02           	cbne	a,#high (1),u2541
  3604  017D5  80 02              	jmp	u2540
  3605  017D7                     u2541:
  3606  017D7  80 06              	jmp	l279
  3607  017D9                     u2540:
  3608  017D9  75 20  03          	mov	?a_main+0,#high(0+u2159)
  3609  017DC  75 21  14          	mov	?a_main+0+1,#low(0+u2159)
  3610  017DF                     l279:
  3611  017DF  E5 25              	mov	a,?a_main+4+1
  3612  017E1  B4 02 07           	cbne	a,#low (2),u2551
  3613  017E4  E5 24              	mov	a,?a_main+4
  3614  017E6  B4 00 02           	cbne	a,#high (2),u2551
  3615  017E9  80 02              	jmp	u2550
  3616  017EB                     u2551:
  3617  017EB  80 06              	jmp	l280
  3618  017ED                     u2550:
  3619  017ED  75 20  02          	mov	?a_main+0,#high(0+u2169)
  3620  017F0  75 21  C0          	mov	?a_main+0+1,#low(0+u2169)
  3621  017F3                     l280:
  3622                           ;main.c: 247: if (b == 3) result = "18    "; if 
                                 (b == 4) result = "24    "; if (b == 5) result =
                                  "30    ";
  3623                           
  3624                           	line	247
  3625  017F3  E5 25              	mov	a,?a_main+4+1
  3626  017F5  B4 03 07           	cbne	a,#low (3),u2561
  3627  017F8  E5 24              	mov	a,?a_main+4
  3628  017FA  B4 00 02           	cbne	a,#high (3),u2561
  3629  017FD  80 02              	jmp	u2560
  3630  017FF                     u2561:
  3631  017FF  80 06              	jmp	l281
  3632  01801                     u2560:
  3633  01801  75 20  02          	mov	?a_main+0,#high(0+u2179)
  3634  01804  75 21  26          	mov	?a_main+0+1,#low(0+u2179)
  3635  01807                     l281:
  3636  01807  E5 25              	mov	a,?a_main+4+1
  3637  01809  B4 04 07           	cbne	a,#low (4),u2571
  3638  0180C  E5 24              	mov	a,?a_main+4
  3639  0180E  B4 00 02           	cbne	a,#high (4),u2571
  3640  01811  80 02              	jmp	u2570
  3641  01813                     u2571:
  3642  01813  80 06              	jmp	l282
  3643  01815                     u2570:
  3644  01815  75 20  02          	mov	?a_main+0,#high(0+u2189)
  3645  01818  75 21  88          	mov	?a_main+0+1,#low(0+u2189)
  3646  0181B                     l282:
  3647  0181B  E5 25              	mov	a,?a_main+4+1
  3648  0181D  B4 05 07           	cbne	a,#low (5),u2581
  3649  01820  E5 24              	mov	a,?a_main+4
  3650  01822  B4 00 02           	cbne	a,#high (5),u2581
  3651  01825  80 02              	jmp	u2580
  3652  01827                     u2581:
  3653  01827  80 06              	jmp	l283
  3654  01829                     u2580:
  3655  01829  75 20  02          	mov	?a_main+0,#high(0+u2199)
  3656  0182C  75 21  EA          	mov	?a_main+0+1,#low(0+u2199)
  3657  0182F                     l283:
  3658                           ;main.c: 248: if (b == 6) result = "36    "; if 
                                 (b == 7) result = "42    "; if (b == 8) result =
                                  "48    ";
  3659                           
  3660                           	line	248
  3661  0182F  E5 25              	mov	a,?a_main+4+1
  3662  01831  B4 06 07           	cbne	a,#low (6),u2591
  3663  01834  E5 24              	mov	a,?a_main+4
  3664  01836  B4 00 02           	cbne	a,#high (6),u2591
  3665  01839  80 02              	jmp	u2590
  3666  0183B                     u2591:
  3667  0183B  80 06              	jmp	l284
  3668  0183D                     u2590:
  3669  0183D  75 20  02          	mov	?a_main+0,#high(0+u2209)
  3670  01840  75 21  49          	mov	?a_main+0+1,#low(0+u2209)
  3671  01843                     l284:
  3672  01843  E5 25              	mov	a,?a_main+4+1
  3673  01845  B4 07 07           	cbne	a,#low (7),u2601
  3674  01848  E5 24              	mov	a,?a_main+4
  3675  0184A  B4 00 02           	cbne	a,#high (7),u2601
  3676  0184D  80 02              	jmp	u2600
  3677  0184F                     u2601:
  3678  0184F  80 06              	jmp	l285
  3679  01851                     u2600:
  3680  01851  75 20  02          	mov	?a_main+0,#high(0+u2219)
  3681  01854  75 21  B2          	mov	?a_main+0+1,#low(0+u2219)
  3682  01857                     l285:
  3683  01857  E5 25              	mov	a,?a_main+4+1
  3684  01859  B4 08 07           	cbne	a,#low (8),u2611
  3685  0185C  E5 24              	mov	a,?a_main+4
  3686  0185E  B4 00 02           	cbne	a,#high (8),u2611
  3687  01861  80 02              	jmp	u2610
  3688  01863                     u2611:
  3689  01863  80 06              	jmp	l286
  3690  01865                     u2610:
  3691  01865  75 20  02          	mov	?a_main+0,#high(0+u2229)
  3692  01868  75 21  18          	mov	?a_main+0+1,#low(0+u2229)
  3693  0186B                     l286:
  3694                           ;main.c: 249: if (b == 9) result = "54    ";
  3695                           
  3696                           	line	249
  3697  0186B  E5 25              	mov	a,?a_main+4+1
  3698  0186D  B4 09 07           	cbne	a,#low (9),u2621
  3699  01870  E5 24              	mov	a,?a_main+4
  3700  01872  B4 00 02           	cbne	a,#high (9),u2621
  3701  01875  80 02              	jmp	u2620
  3702  01877                     u2621:
  3703  01877  80 06              	jmp	l287
  3704  01879                     u2620:
  3705  01879  75 20  02          	mov	?a_main+0,#high(0+u2239)
  3706  0187C  75 21  81          	mov	?a_main+0+1,#low(0+u2239)
  3707  0187F                     l287:
  3708                           	line	250
  3709  0187F                     l277:
  3710                           ;main.c: 250: }
  3711                           
  3712                           ;main.c: 251: if(a == 7)
  3713                           
  3714                           	line	251
  3715  0187F  E5 23              	mov	a,?a_main+2+1
  3716  01881  B4 07 07           	cbne	a,#low (7),u2631
  3717  01884  E5 22              	mov	a,?a_main+2
  3718  01886  B4 00 02           	cbne	a,#high (7),u2631
  3719  01889  80 03              	jmp	u2630
  3720  0188B                     u2631:
  3721  0188B  02 1952            	jmp	l288
  3722  0188E                     u2630:
  3723                           ;main.c: 252: {
  3724                           
  3725                           ;main.c: 253: if (b == 0) result = "0     "; if 
                                 (b == 1) result = "7     "; if (b == 2) result =
                                  "14    ";
  3726                           
  3727                           	line	253
  3728  0188E  E5 25              	mov	a,?a_main+4+1
  3729  01890  45 24              	orl	a,?a_main+4
  3730  01892  70 02              	bnz	u2641
  3731  01894  80 02              	jmp	u2640
  3732  01896                     u2641:
  3733  01896  80 06              	jmp	l289
  3734  01898                     u2640:
  3735  01898  75 20  03          	mov	?a_main+0,#high(0+u2249)
  3736  0189B  75 21  3E          	mov	?a_main+0+1,#low(0+u2249)
  3737  0189E                     l289:
  3738  0189E  E5 25              	mov	a,?a_main+4+1
  3739  018A0  B4 01 07           	cbne	a,#low (1),u2651
  3740  018A3  E5 24              	mov	a,?a_main+4
  3741  018A5  B4 00 02           	cbne	a,#high (1),u2651
  3742  018A8  80 02              	jmp	u2650
  3743  018AA                     u2651:
  3744  018AA  80 06              	jmp	l290
  3745  018AC                     u2650:
  3746  018AC  75 20  03          	mov	?a_main+0,#high(0+u2259)
  3747  018AF  75 21  0D          	mov	?a_main+0+1,#low(0+u2259)
  3748  018B2                     l290:
  3749  018B2  E5 25              	mov	a,?a_main+4+1
  3750  018B4  B4 02 07           	cbne	a,#low (2),u2661
  3751  018B7  E5 24              	mov	a,?a_main+4
  3752  018B9  B4 00 02           	cbne	a,#high (2),u2661
  3753  018BC  80 02              	jmp	u2660
  3754  018BE                     u2661:
  3755  018BE  80 06              	jmp	l291
  3756  018C0                     u2660:
  3757  018C0  75 20  02          	mov	?a_main+0,#high(0+u2269)
  3758  018C3  75 21  8F          	mov	?a_main+0+1,#low(0+u2269)
  3759  018C6                     l291:
  3760                           ;main.c: 254: if (b == 3) result = "21    "; if 
                                 (b == 4) result = "28    "; if (b == 5) result =
                                  "35    ";
  3761                           
  3762                           	line	254
  3763  018C6  E5 25              	mov	a,?a_main+4+1
  3764  018C8  B4 03 07           	cbne	a,#low (3),u2671
  3765  018CB  E5 24              	mov	a,?a_main+4
  3766  018CD  B4 00 02           	cbne	a,#high (3),u2671
  3767  018D0  80 02              	jmp	u2670
  3768  018D2                     u2671:
  3769  018D2  80 06              	jmp	l292
  3770  018D4                     u2670:
  3771  018D4  75 20  02          	mov	?a_main+0,#high(0+u2279)
  3772  018D7  75 21  CE          	mov	?a_main+0+1,#low(0+u2279)
  3773  018DA                     l292:
  3774  018DA  E5 25              	mov	a,?a_main+4+1
  3775  018DC  B4 04 07           	cbne	a,#low (4),u2681
  3776  018DF  E5 24              	mov	a,?a_main+4
  3777  018E1  B4 00 02           	cbne	a,#high (4),u2681
  3778  018E4  80 02              	jmp	u2680
  3779  018E6                     u2681:
  3780  018E6  80 06              	jmp	l293
  3781  018E8                     u2680:
  3782  018E8  75 20  02          	mov	?a_main+0,#high(0+u2289)
  3783  018EB  75 21  1F          	mov	?a_main+0+1,#low(0+u2289)
  3784  018EE                     l293:
  3785  018EE  E5 25              	mov	a,?a_main+4+1
  3786  018F0  B4 05 07           	cbne	a,#low (5),u2691
  3787  018F3  E5 24              	mov	a,?a_main+4
  3788  018F5  B4 00 02           	cbne	a,#high (5),u2691
  3789  018F8  80 02              	jmp	u2690
  3790  018FA                     u2691:
  3791  018FA  80 06              	jmp	l294
  3792  018FC                     u2690:
  3793  018FC  75 20  02          	mov	?a_main+0,#high(0+u2299)
  3794  018FF  75 21  65          	mov	?a_main+0+1,#low(0+u2299)
  3795  01902                     l294:
  3796                           ;main.c: 255: if (b == 6) result = "42    "; if 
                                 (b == 7) result = "49    "; if (b == 8) result =
                                  "56    ";
  3797                           
  3798                           	line	255
  3799  01902  E5 25              	mov	a,?a_main+4+1
  3800  01904  B4 06 07           	cbne	a,#low (6),u2701
  3801  01907  E5 24              	mov	a,?a_main+4
  3802  01909  B4 00 02           	cbne	a,#high (6),u2701
  3803  0190C  80 02              	jmp	u2700
  3804  0190E                     u2701:
  3805  0190E  80 06              	jmp	l295
  3806  01910                     u2700:
  3807  01910  75 20  02          	mov	?a_main+0,#high(0+u2309)
  3808  01913  75 21  B2          	mov	?a_main+0+1,#low(0+u2309)
  3809  01916                     l295:
  3810  01916  E5 25              	mov	a,?a_main+4+1
  3811  01918  B4 07 07           	cbne	a,#low (7),u2711
  3812  0191B  E5 24              	mov	a,?a_main+4
  3813  0191D  B4 00 02           	cbne	a,#high (7),u2711
  3814  01920  80 02              	jmp	u2710
  3815  01922                     u2711:
  3816  01922  80 06              	jmp	l296
  3817  01924                     u2710:
  3818  01924  75 20  02          	mov	?a_main+0,#high(0+u2319)
  3819  01927  75 21  0A          	mov	?a_main+0+1,#low(0+u2319)
  3820  0192A                     l296:
  3821  0192A  E5 25              	mov	a,?a_main+4+1
  3822  0192C  B4 08 07           	cbne	a,#low (8),u2721
  3823  0192F  E5 24              	mov	a,?a_main+4
  3824  01931  B4 00 02           	cbne	a,#high (8),u2721
  3825  01934  80 02              	jmp	u2720
  3826  01936                     u2721:
  3827  01936  80 06              	jmp	l297
  3828  01938                     u2720:
  3829  01938  75 20  02          	mov	?a_main+0,#high(0+u2329)
  3830  0193B  75 21  42          	mov	?a_main+0+1,#low(0+u2329)
  3831  0193E                     l297:
  3832                           ;main.c: 256: if (b == 9) result = "63    ";
  3833                           
  3834                           	line	256
  3835  0193E  E5 25              	mov	a,?a_main+4+1
  3836  01940  B4 09 07           	cbne	a,#low (9),u2731
  3837  01943  E5 24              	mov	a,?a_main+4
  3838  01945  B4 00 02           	cbne	a,#high (9),u2731
  3839  01948  80 02              	jmp	u2730
  3840  0194A                     u2731:
  3841  0194A  80 06              	jmp	l298
  3842  0194C                     u2730:
  3843  0194C  75 20  02          	mov	?a_main+0,#high(0+u2339)
  3844  0194F  75 21  9D          	mov	?a_main+0+1,#low(0+u2339)
  3845  01952                     l298:
  3846                           	line	257
  3847  01952                     l288:
  3848                           	line	258
  3849  01952                     l220:
  3850                           ;main.c: 257: }
  3851                           
  3852                           ;main.c: 258: }
  3853                           
  3854                           ;main.c: 259: if(flag == 4)
  3855                           
  3856                           	line	259
  3857  01952  E5 27              	mov	a,?a_main+6+1
  3858  01954  B4 04 07           	cbne	a,#low (4),u2741
  3859  01957  E5 26              	mov	a,?a_main+6
  3860  01959  B4 00 02           	cbne	a,#high (4),u2741
  3861  0195C  80 03              	jmp	u2740
  3862  0195E                     u2741:
  3863  0195E  02 1F48            	jmp	l299
  3864  01961                     u2740:
  3865                           ;main.c: 260: {
  3866                           
  3867                           ;main.c: 261: if(a == 0)
  3868                           
  3869                           	line	261
  3870  01961  E5 23              	mov	a,?a_main+2+1
  3871  01963  45 22              	orl	a,?a_main+2
  3872  01965  70 02              	bnz	u2751
  3873  01967  80 02              	jmp	u2750
  3874  01969                     u2751:
  3875  01969  80 18              	jmp	l300
  3876  0196B                     u2750:
  3877                           ;main.c: 262: {
  3878                           
  3879                           ;main.c: 263: if (b == 0) result = "######";
  3880                           
  3881                           	line	263
  3882  0196B  E5 25              	mov	a,?a_main+4+1
  3883  0196D  45 24              	orl	a,?a_main+4
  3884  0196F  70 02              	bnz	u2761
  3885  01971  80 02              	jmp	u2760
  3886  01973                     u2761:
  3887  01973  80 08              	jmp	l301
  3888  01975                     u2760:
  3889  01975  75 20  01          	mov	?a_main+0,#high(0+u2349)
  3890  01978  75 21  3F          	mov	?a_main+0+1,#low(0+u2349)
  3891  0197B  80 06              	jmp	l302
  3892                           	line	264
  3893  0197D                     l301:
  3894                           ;main.c: 264: else result = "0     ";
  3895                           
  3896  0197D  75 20  03          	mov	?a_main+0,#high(0+u2359)
  3897  01980  75 21  3E          	mov	?a_main+0+1,#low(0+u2359)
  3898  01983                     l302:
  3899                           	line	265
  3900  01983                     l300:
  3901                           ;main.c: 265: }
  3902                           
  3903                           ;main.c: 266: if(a == 1)
  3904                           
  3905                           	line	266
  3906  01983  E5 23              	mov	a,?a_main+2+1
  3907  01985  B4 01 07           	cbne	a,#low (1),u2771
  3908  01988  E5 22              	mov	a,?a_main+2
  3909  0198A  B4 00 02           	cbne	a,#high (1),u2771
  3910  0198D  80 03              	jmp	u2770
  3911  0198F                     u2771:
  3912  0198F  02 1A56            	jmp	l303
  3913  01992                     u2770:
  3914                           ;main.c: 267: {
  3915                           
  3916                           ;main.c: 268: if (b == 0) result = "######"; if 
                                 (b == 1) result = "1     "; if (b == 2) result =
                                  "0.5   ";
  3917                           
  3918                           	line	268
  3919  01992  E5 25              	mov	a,?a_main+4+1
  3920  01994  45 24              	orl	a,?a_main+4
  3921  01996  70 02              	bnz	u2781
  3922  01998  80 02              	jmp	u2780
  3923  0199A                     u2781:
  3924  0199A  80 06              	jmp	l304
  3925  0199C                     u2780:
  3926  0199C  75 20  01          	mov	?a_main+0,#high(0+u2369)
  3927  0199F  75 21  3F          	mov	?a_main+0+1,#low(0+u2369)
  3928  019A2                     l304:
  3929  019A2  E5 25              	mov	a,?a_main+4+1
  3930  019A4  B4 01 07           	cbne	a,#low (1),u2791
  3931  019A7  E5 24              	mov	a,?a_main+4
  3932  019A9  B4 00 02           	cbne	a,#high (1),u2791
  3933  019AC  80 02              	jmp	u2790
  3934  019AE                     u2791:
  3935  019AE  80 06              	jmp	l305
  3936  019B0                     u2790:
  3937  019B0  75 20  03          	mov	?a_main+0,#high(0+u2379)
  3938  019B3  75 21  37          	mov	?a_main+0+1,#low(0+u2379)
  3939  019B6                     l305:
  3940  019B6  E5 25              	mov	a,?a_main+4+1
  3941  019B8  B4 02 07           	cbne	a,#low (2),u2801
  3942  019BB  E5 24              	mov	a,?a_main+4
  3943  019BD  B4 00 02           	cbne	a,#high (2),u2801
  3944  019C0  80 02              	jmp	u2800
  3945  019C2                     u2801:
  3946  019C2  80 06              	jmp	l306
  3947  019C4                     u2800:
  3948  019C4  75 20  01          	mov	?a_main+0,#high(0+u2389)
  3949  019C7  75 21  E7          	mov	?a_main+0+1,#low(0+u2389)
  3950  019CA                     l306:
  3951                           ;main.c: 269: if (b == 3) result = "0.(3) "; if 
                                 (b == 4) result = "0.25  "; if (b == 5) result =
                                  "0.2   ";
  3952                           
  3953                           	line	269
  3954  019CA  E5 25              	mov	a,?a_main+4+1
  3955  019CC  B4 03 07           	cbne	a,#low (3),u2811
  3956  019CF  E5 24              	mov	a,?a_main+4
  3957  019D1  B4 00 02           	cbne	a,#high (3),u2811
  3958  019D4  80 02              	jmp	u2810
  3959  019D6                     u2811:
  3960  019D6  80 06              	jmp	l307
  3961  019D8                     u2810:
  3962  019D8  75 20  01          	mov	?a_main+0,#high(0+u2399)
  3963  019DB  75 21  93          	mov	?a_main+0+1,#low(0+u2399)
  3964  019DE                     l307:
  3965  019DE  E5 25              	mov	a,?a_main+4+1
  3966  019E0  B4 04 07           	cbne	a,#low (4),u2821
  3967  019E3  E5 24              	mov	a,?a_main+4
  3968  019E5  B4 00 02           	cbne	a,#high (4),u2821
  3969  019E8  80 02              	jmp	u2820
  3970  019EA                     u2821:
  3971  019EA  80 06              	jmp	l308
  3972  019EC                     u2820:
  3973  019EC  75 20  01          	mov	?a_main+0,#high(0+u2409)
  3974  019EF  75 21  BD          	mov	?a_main+0+1,#low(0+u2409)
  3975  019F2                     l308:
  3976  019F2  E5 25              	mov	a,?a_main+4+1
  3977  019F4  B4 05 07           	cbne	a,#low (5),u2831
  3978  019F7  E5 24              	mov	a,?a_main+4
  3979  019F9  B4 00 02           	cbne	a,#high (5),u2831
  3980  019FC  80 02              	jmp	u2830
  3981  019FE                     u2831:
  3982  019FE  80 06              	jmp	l309
  3983  01A00                     u2830:
  3984  01A00  75 20  02          	mov	?a_main+0,#high(0+u2419)
  3985  01A03  75 21  03          	mov	?a_main+0+1,#low(0+u2419)
  3986  01A06                     l309:
  3987                           ;main.c: 270: if (b == 6) result = "0.1(6)"; if 
                                 (b == 7) result = "0.1428"; if (b == 8) result =
                                  "0.125 ";
  3988                           
  3989                           	line	270
  3990  01A06  E5 25              	mov	a,?a_main+4+1
  3991  01A08  B4 06 07           	cbne	a,#low (6),u2841
  3992  01A0B  E5 24              	mov	a,?a_main+4
  3993  01A0D  B4 00 02           	cbne	a,#high (6),u2841
  3994  01A10  80 02              	jmp	u2840
  3995  01A12                     u2841:
  3996  01A12  80 06              	jmp	l310
  3997  01A14                     u2840:
  3998  01A14  75 20  01          	mov	?a_main+0,#high(0+u2429)
  3999  01A17  75 21  31          	mov	?a_main+0+1,#low(0+u2429)
  4000  01A1A                     l310:
  4001  01A1A  E5 25              	mov	a,?a_main+4+1
  4002  01A1C  B4 07 07           	cbne	a,#low (7),u2851
  4003  01A1F  E5 24              	mov	a,?a_main+4
  4004  01A21  B4 00 02           	cbne	a,#high (7),u2851
  4005  01A24  80 02              	jmp	u2850
  4006  01A26                     u2851:
  4007  01A26  80 06              	jmp	l311
  4008  01A28                     u2850:
  4009  01A28  75 20  01          	mov	?a_main+0,#high(0+u2439)
  4010  01A2B  75 21  00          	mov	?a_main+0+1,#low(0+u2439)
  4011  01A2E                     l311:
  4012  01A2E  E5 25              	mov	a,?a_main+4+1
  4013  01A30  B4 08 07           	cbne	a,#low (8),u2861
  4014  01A33  E5 24              	mov	a,?a_main+4
  4015  01A35  B4 00 02           	cbne	a,#high (8),u2861
  4016  01A38  80 02              	jmp	u2860
  4017  01A3A                     u2861:
  4018  01A3A  80 06              	jmp	l312
  4019  01A3C                     u2860:
  4020  01A3C  75 20  01          	mov	?a_main+0,#high(0+u2449)
  4021  01A3F  75 21  5B          	mov	?a_main+0+1,#low(0+u2449)
  4022  01A42                     l312:
  4023                           ;main.c: 271: if (b == 9) result = "0.(1) ";
  4024                           
  4025                           	line	271
  4026  01A42  E5 25              	mov	a,?a_main+4+1
  4027  01A44  B4 09 07           	cbne	a,#low (9),u2871
  4028  01A47  E5 24              	mov	a,?a_main+4
  4029  01A49  B4 00 02           	cbne	a,#high (9),u2871
  4030  01A4C  80 02              	jmp	u2870
  4031  01A4E                     u2871:
  4032  01A4E  80 06              	jmp	l313
  4033  01A50                     u2870:
  4034  01A50  75 20  01          	mov	?a_main+0,#high(0+u2459)
  4035  01A53  75 21  A1          	mov	?a_main+0+1,#low(0+u2459)
  4036  01A56                     l313:
  4037                           	line	272
  4038  01A56                     l303:
  4039                           ;main.c: 272: }
  4040                           
  4041                           ;main.c: 273: if(a == 2)
  4042                           
  4043                           	line	273
  4044  01A56  E5 23              	mov	a,?a_main+2+1
  4045  01A58  B4 02 07           	cbne	a,#low (2),u2881
  4046  01A5B  E5 22              	mov	a,?a_main+2
  4047  01A5D  B4 00 02           	cbne	a,#high (2),u2881
  4048  01A60  80 03              	jmp	u2880
  4049  01A62                     u2881:
  4050  01A62  02 1B29            	jmp	l314
  4051  01A65                     u2880:
  4052                           ;main.c: 274: {
  4053                           
  4054                           ;main.c: 275: if (b == 0) result = "######"; if 
                                 (b == 1) result = "2     "; if (b == 2) result =
                                  "1     ";
  4055                           
  4056                           	line	275
  4057  01A65  E5 25              	mov	a,?a_main+4+1
  4058  01A67  45 24              	orl	a,?a_main+4
  4059  01A69  70 02              	bnz	u2891
  4060  01A6B  80 02              	jmp	u2890
  4061  01A6D                     u2891:
  4062  01A6D  80 06              	jmp	l315
  4063  01A6F                     u2890:
  4064  01A6F  75 20  01          	mov	?a_main+0,#high(0+u2469)
  4065  01A72  75 21  3F          	mov	?a_main+0+1,#low(0+u2469)
  4066  01A75                     l315:
  4067  01A75  E5 25              	mov	a,?a_main+4+1
  4068  01A77  B4 01 07           	cbne	a,#low (1),u2901
  4069  01A7A  E5 24              	mov	a,?a_main+4
  4070  01A7C  B4 00 02           	cbne	a,#high (1),u2901
  4071  01A7F  80 02              	jmp	u2900
  4072  01A81                     u2901:
  4073  01A81  80 06              	jmp	l316
  4074  01A83                     u2900:
  4075  01A83  75 20  03          	mov	?a_main+0,#high(0+u2479)
  4076  01A86  75 21  30          	mov	?a_main+0+1,#low(0+u2479)
  4077  01A89                     l316:
  4078  01A89  E5 25              	mov	a,?a_main+4+1
  4079  01A8B  B4 02 07           	cbne	a,#low (2),u2911
  4080  01A8E  E5 24              	mov	a,?a_main+4
  4081  01A90  B4 00 02           	cbne	a,#high (2),u2911
  4082  01A93  80 02              	jmp	u2910
  4083  01A95                     u2911:
  4084  01A95  80 06              	jmp	l317
  4085  01A97                     u2910:
  4086  01A97  75 20  03          	mov	?a_main+0,#high(0+u2489)
  4087  01A9A  75 21  37          	mov	?a_main+0+1,#low(0+u2489)
  4088  01A9D                     l317:
  4089                           ;main.c: 276: if (b == 3) result = "0.(6) "; if 
                                 (b == 4) result = "0.5   "; if (b == 5) result =
                                  "0.4   ";
  4090                           
  4091                           	line	276
  4092  01A9D  E5 25              	mov	a,?a_main+4+1
  4093  01A9F  B4 03 07           	cbne	a,#low (3),u2921
  4094  01AA2  E5 24              	mov	a,?a_main+4
  4095  01AA4  B4 00 02           	cbne	a,#high (3),u2921
  4096  01AA7  80 02              	jmp	u2920
  4097  01AA9                     u2921:
  4098  01AA9  80 06              	jmp	l318
  4099+ 01AAB                     u2920:
  4100+ 01AAB  75 20  01          	mov	?a_main+0,#high(0+u2499)
  4101+ 01AAE  75 21  70          	mov	?a_main+0+1,#low(0+u2499)
  4102+ 01AB1                     l318:
  4103+ 01AB1  E5 25              	mov	a,?a_main+4+1
  4104+ 01AB3  B4 04 07           	cbne	a,#low (4),u2931
  4105+ 01AB6  E5 24              	mov	a,?a_main+4
  4106+ 01AB8  B4 00 02           	cbne	a,#high (4),u2931
  4107+ 01ABB  80 02              	jmp	u2930
  4108+ 01ABD                     u2931:
  4109+ 01ABD  80 06              	jmp	l319
  4110+ 01ABF                     u2930:
  4111+ 01ABF  75 20  01          	mov	?a_main+0,#high(0+u2509)
  4112+ 01AC2  75 21  E7          	mov	?a_main+0+1,#low(0+u2509)
  4113+ 01AC5                     l319:
  4114+ 01AC5  E5 25              	mov	a,?a_main+4+1
  4115+ 01AC7  B4 05 07           	cbne	a,#low (5),u2941
  4116+ 01ACA  E5 24              	mov	a,?a_main+4
  4117+ 01ACC  B4 00 02           	cbne	a,#high (5),u2941
  4118+ 01ACF  80 02              	jmp	u2940
  4119+ 01AD1                     u2941:
  4120+ 01AD1  80 06              	jmp	l320
  4121+ 01AD3                     u2940:
  4122+ 01AD3  75 20  01          	mov	?a_main+0,#high(0+u2519)
  4123+ 01AD6  75 21  F5          	mov	?a_main+0+1,#low(0+u2519)
  4124+ 01AD9                     l320:
  4125+                          ;main.c: 277: if (b == 6) result = "0.(3) "; if 
      +                          (b == 7) result = "0.2857"; if (b == 8) result =
      +                           "0.25  ";
  4126+                          
  4127+                          	line	277
  4128+ 01AD9  E5 25              	mov	a,?a_main+4+1
  4129+ 01ADB  B4 06 07           	cbne	a,#low (6),u2951
  4130+ 01ADE  E5 24              	mov	a,?a_main+4
  4131+ 01AE0  B4 00 02           	cbne	a,#high (6),u2951
  4132+ 01AE3  80 02              	jmp	u2950
  4133+ 01AE5                     u2951:
  4134+ 01AE5  80 06              	jmp	l321
  4135+ 01AE7                     u2950:
  4136+ 01AE7  75 20  01          	mov	?a_main+0,#high(0+u2529)
  4137+ 01AEA  75 21  93          	mov	?a_main+0+1,#low(0+u2529)
  4138+ 01AED                     l321:
  4139+ 01AED  E5 25              	mov	a,?a_main+4+1
  4140+ 01AEF  B4 07 07           	cbne	a,#low (7),u2961
  4141+ 01AF2  E5 24              	mov	a,?a_main+4
  4142+ 01AF4  B4 00 02           	cbne	a,#high (7),u2961
  4143+ 01AF7  80 02              	jmp	u2960
  4144+ 01AF9                     u2961:
  4145+ 01AF9  80 06              	jmp	l322
  4146+ 01AFB                     u2960:
  4147+ 01AFB  75 20  01          	mov	?a_main+0,#high(0+u2539)
  4148+ 01AFE  75 21  07          	mov	?a_main+0+1,#low(0+u2539)
  4149+ 01B01                     l322:
  4150+ 01B01  E5 25              	mov	a,?a_main+4+1
  4151+ 01B03  B4 08 07           	cbne	a,#low (8),u2971
  4152+ 01B06  E5 24              	mov	a,?a_main+4
  4153+ 01B08  B4 00 02           	cbne	a,#high (8),u2971
  4154+ 01B0B  80 02              	jmp	u2970
  4155+ 01B0D                     u2971:
  4156+ 01B0D  80 06              	jmp	l323
  4157+ 01B0F                     u2970:
  4158+ 01B0F  75 20  01          	mov	?a_main+0,#high(0+u2549)
  4159+ 01B12  75 21  BD          	mov	?a_main+0+1,#low(0+u2549)
  4160+ 01B15                     l323:
  4161+                          ;main.c: 278: if (b == 9) result = "0.(2) ";
  4162+                          
  4163+                          	line	278
  4164+ 01B15  E5 25              	mov	a,?a_main+4+1
  4165+ 01B17  B4 09 07           	cbne	a,#low (9),u2981
  4166+ 01B1A  E5 24              	mov	a,?a_main+4
  4167+ 01B1C  B4 00 02           	cbne	a,#high (9),u2981
  4168+ 01B1F  80 02              	jmp	u2980
  4169+ 01B21                     u2981:
  4170+ 01B21  80 06              	jmp	l324
  4171+ 01B23                     u2980:
  4172+ 01B23  75 20  01          	mov	?a_main+0,#high(0+u2559)
  4173+ 01B26  75 21  9A          	mov	?a_main+0+1,#low(0+u2559)
  4174+ 01B29                     l324:
  4175+                          	line	279
  4176+ 01B29                     l314:
  4177+                          ;main.c: 279: }
  4178+                          
  4179+                          ;main.c: 280: if(a == 3)
  4180+                          
  4181+                          	line	280
  4182+ 01B29  E5 23              	mov	a,?a_main+2+1
  4183+ 01B2B  B4 03 07           	cbne	a,#low (3),u2991
  4184+ 01B2E  E5 22              	mov	a,?a_main+2
  4185+ 01B30  B4 00 02           	cbne	a,#high (3),u2991
  4186+ 01B33  80 03              	jmp	u2990
  4187+ 01B35                     u2991:
  4188+ 01B35  02 1BFC            	jmp	l325
  4189+ 01B38                     u2990:
  4190+                          ;main.c: 281: {
  4191+                          
  4192+                          ;main.c: 282: if (b == 0) result = "######"; if 
      +                          (b == 1) result = "3     "; if (b == 2) result =
      +                           "1.5   ";
  4193+                          
  4194+                          	line	282
  4195+ 01B38  E5 25              	mov	a,?a_main+4+1
  4196+ 01B3A  45 24              	orl	a,?a_main+4
  4197+ 01B3C  70 02              	bnz	u3001
  4198+ 01B3E  80 02              	jmp	u3000
  4199+ 01B40                     u3001:
  4200+ 01B40  80 06              	jmp	l326
  4201+ 01B42                     u3000:
  4202+ 01B42  75 20  01          	mov	?a_main+0,#high(0+u2569)
  4203+ 01B45  75 21  3F          	mov	?a_main+0+1,#low(0+u2569)
  4204+ 01B48                     l326:
  4205+ 01B48  E5 25              	mov	a,?a_main+4+1
  4206+ 01B4A  B4 01 07           	cbne	a,#low (1),u3011
  4207+ 01B4D  E5 24              	mov	a,?a_main+4
  4208+ 01B4F  B4 00 02           	cbne	a,#high (1),u3011
  4209+ 01B52  80 02              	jmp	u3010
  4210+ 01B54                     u3011:
  4211+ 01B54  80 06              	jmp	l327
  4212+ 01B56                     u3010:
  4213+ 01B56  75 20  03          	mov	?a_main+0,#high(0+u2579)
  4214+ 01B59  75 21  29          	mov	?a_main+0+1,#low(0+u2579)
  4215+ 01B5C                     l327:
  4216+ 01B5C  E5 25              	mov	a,?a_main+4+1
  4217+ 01B5E  B4 02 07           	cbne	a,#low (2),u3021
  4218+ 01B61  E5 24              	mov	a,?a_main+4
  4219+ 01B63  B4 00 02           	cbne	a,#high (2),u3021
  4220+ 01B66  80 02              	jmp	u3020
  4221+ 01B68                     u3021:
  4222+ 01B68  80 06              	jmp	l328
  4223+ 01B6A                     u3020:
  4224+ 01B6A  75 20  01          	mov	?a_main+0,#high(0+u2589)
  4225+ 01B6D  75 21  E0          	mov	?a_main+0+1,#low(0+u2589)
  4226+ 01B70                     l328:
  4227+                          ;main.c: 283: if (b == 3) result = "1     "; if 
      +                          (b == 4) result = "0.75  "; if (b == 5) result =
      +                           "0.6   ";
  4228+                          
  4229+                          	line	283
  4230+ 01B70  E5 25              	mov	a,?a_main+4+1
  4231+ 01B72  B4 03 07           	cbne	a,#low (3),u3031
  4232+ 01B75  E5 24              	mov	a,?a_main+4
  4233+ 01B77  B4 00 02           	cbne	a,#high (3),u3031
  4234+ 01B7A  80 02              	jmp	u3030
  4235+ 01B7C                     u3031:
  4236+ 01B7C  80 06              	jmp	l329
  4237+ 01B7E                     u3030:
  4238+ 01B7E  75 20  03          	mov	?a_main+0,#high(0+u2599)
  4239+ 01B81  75 21  37          	mov	?a_main+0+1,#low(0+u2599)
  4240+ 01B84                     l329:
  4241+ 01B84  E5 25              	mov	a,?a_main+4+1
  4242+ 01B86  B4 04 07           	cbne	a,#low (4),u3041
  4243+ 01B89  E5 24              	mov	a,?a_main+4
  4244+ 01B8B  B4 00 02           	cbne	a,#high (4),u3041
  4245+ 01B8E  80 02              	jmp	u3040
  4246+ 01B90                     u3041:
  4247+ 01B90  80 06              	jmp	l330
  4248+ 01B92                     u3040:
  4249+ 01B92  75 20  01          	mov	?a_main+0,#high(0+u2609)
  4250+ 01B95  75 21  AF          	mov	?a_main+0+1,#low(0+u2609)
  4251+ 01B98                     l330:
  4252+ 01B98  E5 25              	mov	a,?a_main+4+1
  4253+ 01B9A  B4 05 07           	cbne	a,#low (5),u3051
  4254+ 01B9D  E5 24              	mov	a,?a_main+4
  4255+ 01B9F  B4 00 02           	cbne	a,#high (5),u3051
  4256+ 01BA2  80 02              	jmp	u3050
  4257+ 01BA4                     u3051:
  4258+ 01BA4  80 06              	jmp	l331
  4259+ 01BA6                     u3050:
  4260+ 01BA6  75 20  01          	mov	?a_main+0,#high(0+u2619)
  4261+ 01BA9  75 21  CB          	mov	?a_main+0+1,#low(0+u2619)
  4262+ 01BAC                     l331:
  4263+                          ;main.c: 284: if (b == 6) result = "0.5   "; if 
      +                          (b == 7) result = "0.4285"; if (b == 8) result =
      +                           "0.375 ";
  4264+                          
  4265+                          	line	284
  4266+ 01BAC  E5 25              	mov	a,?a_main+4+1
  4267+ 01BAE  B4 06 07           	cbne	a,#low (6),u3061
  4268+ 01BB1  E5 24              	mov	a,?a_main+4
  4269+ 01BB3  B4 00 02           	cbne	a,#high (6),u3061
  4270+ 01BB6  80 02              	jmp	u3060
  4271+ 01BB8                     u3061:
  4272+ 01BB8  80 06              	jmp	l332
  4273+ 01BBA                     u3060:
  4274+ 01BBA  75 20  01          	mov	?a_main+0,#high(0+u2629)
  4275+ 01BBD  75 21  E7          	mov	?a_main+0+1,#low(0+u2629)
  4276+ 01BC0                     l332:
  4277+ 01BC0  E5 25              	mov	a,?a_main+4+1
  4278+ 01BC2  B4 07 07           	cbne	a,#low (7),u3071
  4279+ 01BC5  E5 24              	mov	a,?a_main+4
  4280+ 01BC7  B4 00 02           	cbne	a,#high (7),u3071
  4281+ 01BCA  80 02              	jmp	u3070
  4282+ 01BCC                     u3071:
  4283+ 01BCC  80 06              	jmp	l333
  4284+ 01BCE                     u3070:
  4285+ 01BCE  75 20  01          	mov	?a_main+0,#high(0+u2639)
  4286+ 01BD1  75 21  0E          	mov	?a_main+0+1,#low(0+u2639)
  4287+ 01BD4                     l333:
  4288+ 01BD4  E5 25              	mov	a,?a_main+4+1
  4289+ 01BD6  B4 08 07           	cbne	a,#low (8),u3081
  4290+ 01BD9  E5 24              	mov	a,?a_main+4
  4291+ 01BDB  B4 00 02           	cbne	a,#high (8),u3081
  4292+ 01BDE  80 02              	jmp	u3080
  4293+ 01BE0                     u3081:
  4294+ 01BE0  80 06              	jmp	l334
  4295+ 01BE2                     u3080:
  4296+ 01BE2  75 20  01          	mov	?a_main+0,#high(0+u2649)
  4297+ 01BE5  75 21  4D          	mov	?a_main+0+1,#low(0+u2649)
  4298+ 01BE8                     l334:
  4299+                          ;main.c: 285: if (b == 9) result = "0.(3) ";
  4300+                          
  4301+                          	line	285
  4302+ 01BE8  E5 25              	mov	a,?a_main+4+1
  4303+ 01BEA  B4 09 07           	cbne	a,#low (9),u3091
  4304+ 01BED  E5 24              	mov	a,?a_main+4
  4305+ 01BEF  B4 00 02           	cbne	a,#high (9),u3091
  4306+ 01BF2  80 02              	jmp	u3090
  4307+ 01BF4                     u3091:
  4308+ 01BF4  80 06              	jmp	l335
  4309+ 01BF6                     u3090:
  4310+ 01BF6  75 20  01          	mov	?a_main+0,#high(0+u2659)
  4311+ 01BF9  75 21  93          	mov	?a_main+0+1,#low(0+u2659)
  4312+ 01BFC                     l335:
  4313+                          	line	286
  4314+ 01BFC                     l325:
  4315+                          ;main.c: 286: }
  4316+                          
  4317+                          ;main.c: 287: if(a == 4)
  4318+                          
  4319+                          	line	287
  4320+ 01BFC  E5 23              	mov	a,?a_main+2+1
  4321+ 01BFE  B4 04 07           	cbne	a,#low (4),u3101
  4322+ 01C01  E5 22              	mov	a,?a_main+2
  4323+ 01C03  B4 00 02           	cbne	a,#high (4),u3101
  4324+ 01C06  80 03              	jmp	u3100
  4325+ 01C08                     u3101:
  4326+ 01C08  02 1CCF            	jmp	l336
  4327+ 01C0B                     u3100:
  4328+                          ;main.c: 288: {
  4329+                          
  4330+                          ;main.c: 289: if (b == 0) result = "######"; if 
      +                          (b == 1) result = "4     "; if (b == 2) result =
      +                           "2     ";
  4331+                          
  4332+                          	line	289
  4333+ 01C0B  E5 25              	mov	a,?a_main+4+1
  4334+ 01C0D  45 24              	orl	a,?a_main+4
  4335+ 01C0F  70 02              	bnz	u3111
  4336  01C11  80 02              	jmp	u3110
  4337  01C13                     u3111:
  4338  01C13  80 06              	jmp	l337
  4339  01C15                     u3110:
  4340  01C15  75 20  01          	mov	?a_main+0,#high(0+u2669)
  4341  01C18  75 21  3F          	mov	?a_main+0+1,#low(0+u2669)
  4342  01C1B                     l337:
  4343  01C1B  E5 25              	mov	a,?a_main+4+1
  4344  01C1D  B4 01 07           	cbne	a,#low (1),u3121
  4345  01C20  E5 24              	mov	a,?a_main+4
  4346  01C22  B4 00 02           	cbne	a,#high (1),u3121
  4347  01C25  80 02              	jmp	u3120
  4348  01C27                     u3121:
  4349  01C27  80 06              	jmp	l338
  4350  01C29                     u3120:
  4351  01C29  75 20  03          	mov	?a_main+0,#high(0+u2679)
  4352  01C2C  75 21  22          	mov	?a_main+0+1,#low(0+u2679)
  4353  01C2F                     l338:
  4354  01C2F  E5 25              	mov	a,?a_main+4+1
  4355  01C31  B4 02 07           	cbne	a,#low (2),u3131
  4356  01C34  E5 24              	mov	a,?a_main+4
  4357  01C36  B4 00 02           	cbne	a,#high (2),u3131
  4358  01C39  80 02              	jmp	u3130
  4359  01C3B                     u3131:
  4360  01C3B  80 06              	jmp	l339
  4361  01C3D                     u3130:
  4362  01C3D  75 20  03          	mov	?a_main+0,#high(0+u2689)
  4363  01C40  75 21  30          	mov	?a_main+0+1,#low(0+u2689)
  4364  01C43                     l339:
  4365                           ;main.c: 290: if (b == 3) result = "1.(3) "; if 
                                 (b == 4) result = "1     "; if (b == 5) result =
                                  "0.8   ";
  4366                           
  4367                           	line	290
  4368  01C43  E5 25              	mov	a,?a_main+4+1
  4369  01C45  B4 03 07           	cbne	a,#low (3),u3141
  4370  01C48  E5 24              	mov	a,?a_main+4
  4371  01C4A  B4 00 02           	cbne	a,#high (3),u3141
  4372  01C4D  80 02              	jmp	u3140
  4373  01C4F                     u3141:
  4374  01C4F  80 06              	jmp	l340
  4375  01C51                     u3140:
  4376  01C51  75 20  01          	mov	?a_main+0,#high(0+u2699)
  4377  01C54  75 21  8C          	mov	?a_main+0+1,#low(0+u2699)
  4378  01C57                     l340:
  4379  01C57  E5 25              	mov	a,?a_main+4+1
  4380  01C59  B4 04 07           	cbne	a,#low (4),u3151
  4381  01C5C  E5 24              	mov	a,?a_main+4
  4382  01C5E  B4 00 02           	cbne	a,#high (4),u3151
  4383  01C61  80 02              	jmp	u3150
  4384  01C63                     u3151:
  4385  01C63  80 06              	jmp	l341
  4386  01C65                     u3150:
  4387  01C65  75 20  03          	mov	?a_main+0,#high(0+u2709)
  4388  01C68  75 21  37          	mov	?a_main+0+1,#low(0+u2709)
  4389  01C6B                     l341:
  4390  01C6B  E5 25              	mov	a,?a_main+4+1
  4391  01C6D  B4 05 07           	cbne	a,#low (5),u3161
  4392  01C70  E5 24              	mov	a,?a_main+4
  4393  01C72  B4 00 02           	cbne	a,#high (5),u3161
  4394  01C75  80 02              	jmp	u3160
  4395  01C77                     u3161:
  4396  01C77  80 06              	jmp	l342
  4397  01C79                     u3160:
  4398  01C79  75 20  01          	mov	?a_main+0,#high(0+u2719)
  4399  01C7C  75 21  C4          	mov	?a_main+0+1,#low(0+u2719)
  4400  01C7F                     l342:
  4401                           ;main.c: 291: if (b == 6) result = "0.(6) "; if 
                                 (b == 7) result = "0.5714"; if (b == 8) result =
                                  "0.5   ";
  4402                           
  4403                           	line	291
  4404  01C7F  E5 25              	mov	a,?a_main+4+1
  4405  01C81  B4 06 07           	cbne	a,#low (6),u3171
  4406  01C84  E5 24              	mov	a,?a_main+4
  4407  01C86  B4 00 02           	cbne	a,#high (6),u3171
  4408  01C89  80 02              	jmp	u3170
  4409  01C8B                     u3171:
  4410  01C8B  80 06              	jmp	l343
  4411  01C8D                     u3170:
  4412  01C8D  75 20  01          	mov	?a_main+0,#high(0+u2729)
  4413  01C90  75 21  70          	mov	?a_main+0+1,#low(0+u2729)
  4414  01C93                     l343:
  4415  01C93  E5 25              	mov	a,?a_main+4+1
  4416  01C95  B4 07 07           	cbne	a,#low (7),u3181
  4417  01C98  E5 24              	mov	a,?a_main+4
  4418  01C9A  B4 00 02           	cbne	a,#high (7),u3181
  4419  01C9D  80 02              	jmp	u3180
  4420  01C9F                     u3181:
  4421  01C9F  80 06              	jmp	l344
  4422  01CA1                     u3180:
  4423  01CA1  75 20  01          	mov	?a_main+0,#high(0+u2739)
  4424  01CA4  75 21  15          	mov	?a_main+0+1,#low(0+u2739)
  4425  01CA7                     l344:
  4426  01CA7  E5 25              	mov	a,?a_main+4+1
  4427  01CA9  B4 08 07           	cbne	a,#low (8),u3191
  4428  01CAC  E5 24              	mov	a,?a_main+4
  4429  01CAE  B4 00 02           	cbne	a,#high (8),u3191
  4430  01CB1  80 02              	jmp	u3190
  4431  01CB3                     u3191:
  4432  01CB3  80 06              	jmp	l345
  4433  01CB5                     u3190:
  4434  01CB5  75 20  01          	mov	?a_main+0,#high(0+u2749)
  4435  01CB8  75 21  E7          	mov	?a_main+0+1,#low(0+u2749)
  4436  01CBB                     l345:
  4437                           ;main.c: 292: if (b == 9) result = "0.(4) ";
  4438                           
  4439                           	line	292
  4440  01CBB  E5 25              	mov	a,?a_main+4+1
  4441  01CBD  B4 09 07           	cbne	a,#low (9),u3201
  4442  01CC0  E5 24              	mov	a,?a_main+4
  4443  01CC2  B4 00 02           	cbne	a,#high (9),u3201
  4444  01CC5  80 02              	jmp	u3200
  4445  01CC7                     u3201:
  4446  01CC7  80 06              	jmp	l346
  4447  01CC9                     u3200:
  4448  01CC9  75 20  01          	mov	?a_main+0,#high(0+u2759)
  4449  01CCC  75 21  7E          	mov	?a_main+0+1,#low(0+u2759)
  4450  01CCF                     l346:
  4451                           	line	293
  4452  01CCF                     l336:
  4453                           ;main.c: 293: }
  4454                           
  4455                           ;main.c: 294: if(a == 5)
  4456                           
  4457                           	line	294
  4458  01CCF  E5 23              	mov	a,?a_main+2+1
  4459  01CD1  B4 05 07           	cbne	a,#low (5),u3211
  4460  01CD4  E5 22              	mov	a,?a_main+2
  4461  01CD6  B4 00 02           	cbne	a,#high (5),u3211
  4462  01CD9  80 03              	jmp	u3210
  4463  01CDB                     u3211:
  4464  01CDB  02 1DA2            	jmp	l347
  4465  01CDE                     u3210:
  4466                           ;main.c: 295: {
  4467                           
  4468                           ;main.c: 296: if (b == 0) result = "######"; if 
                                 (b == 1) result = "5     "; if (b == 2) result =
                                  "2.5   ";
  4469                           
  4470                           	line	296
  4471  01CDE  E5 25              	mov	a,?a_main+4+1
  4472  01CE0  45 24              	orl	a,?a_main+4
  4473  01CE2  70 02              	bnz	u3221
  4474  01CE4  80 02              	jmp	u3220
  4475  01CE6                     u3221:
  4476  01CE6  80 06              	jmp	l348
  4477  01CE8                     u3220:
  4478  01CE8  75 20  01          	mov	?a_main+0,#high(0+u2769)
  4479  01CEB  75 21  3F          	mov	?a_main+0+1,#low(0+u2769)
  4480  01CEE                     l348:
  4481  01CEE  E5 25              	mov	a,?a_main+4+1
  4482  01CF0  B4 01 07           	cbne	a,#low (1),u3231
  4483  01CF3  E5 24              	mov	a,?a_main+4
  4484  01CF5  B4 00 02           	cbne	a,#high (1),u3231
  4485  01CF8  80 02              	jmp	u3230
  4486  01CFA                     u3231:
  4487  01CFA  80 06              	jmp	l349
  4488  01CFC                     u3230:
  4489  01CFC  75 20  03          	mov	?a_main+0,#high(0+u2779)
  4490  01CFF  75 21  1B          	mov	?a_main+0+1,#low(0+u2779)
  4491  01D02                     l349:
  4492  01D02  E5 25              	mov	a,?a_main+4+1
  4493  01D04  B4 02 07           	cbne	a,#low (2),u3241
  4494  01D07  E5 24              	mov	a,?a_main+4
  4495  01D09  B4 00 02           	cbne	a,#high (2),u3241
  4496  01D0C  80 02              	jmp	u3240
  4497  01D0E                     u3241:
  4498  01D0E  80 06              	jmp	l350
  4499  01D10                     u3240:
  4500  01D10  75 20  01          	mov	?a_main+0,#high(0+u2789)
  4501  01D13  75 21  D9          	mov	?a_main+0+1,#low(0+u2789)
  4502  01D16                     l350:
  4503                           ;main.c: 297: if (b == 3) result = "1.(6) "; if 
                                 (b == 4) result = "1.25  "; if (b == 5) result =
                                  "1     ";
  4504                           
  4505                           	line	297
  4506  01D16  E5 25              	mov	a,?a_main+4+1
  4507  01D18  B4 03 07           	cbne	a,#low (3),u3251
  4508  01D1B  E5 24              	mov	a,?a_main+4
  4509  01D1D  B4 00 02           	cbne	a,#high (3),u3251
  4510  01D20  80 02              	jmp	u3250
  4511  01D22                     u3251:
  4512  01D22  80 06              	jmp	l351
  4513  01D24                     u3250:
  4514  01D24  75 20  01          	mov	?a_main+0,#high(0+u2799)
  4515  01D27  75 21  69          	mov	?a_main+0+1,#low(0+u2799)
  4516  01D2A                     l351:
  4517  01D2A  E5 25              	mov	a,?a_main+4+1
  4518  01D2C  B4 04 07           	cbne	a,#low (4),u3261
  4519  01D2F  E5 24              	mov	a,?a_main+4
  4520  01D31  B4 00 02           	cbne	a,#high (4),u3261
  4521  01D34  80 02              	jmp	u3260
  4522  01D36                     u3261:
  4523  01D36  80 06              	jmp	l352
  4524  01D38                     u3260:
  4525  01D38  75 20  01          	mov	?a_main+0,#high(0+u2809)
  4526  01D3B  75 21  B6          	mov	?a_main+0+1,#low(0+u2809)
  4527  01D3E                     l352:
  4528  01D3E  E5 25              	mov	a,?a_main+4+1
  4529  01D40  B4 05 07           	cbne	a,#low (5),u3271
  4530  01D43  E5 24              	mov	a,?a_main+4
  4531  01D45  B4 00 02           	cbne	a,#high (5),u3271
  4532  01D48  80 02              	jmp	u3270
  4533  01D4A                     u3271:
  4534  01D4A  80 06              	jmp	l353
  4535  01D4C                     u3270:
  4536  01D4C  75 20  03          	mov	?a_main+0,#high(0+u2819)
  4537  01D4F  75 21  37          	mov	?a_main+0+1,#low(0+u2819)
  4538  01D52                     l353:
  4539                           ;main.c: 298: if (b == 6) result = "0.8(3)"; if 
                                 (b == 7) result = "0.7142"; if (b == 8) result =
                                  "0.625 ";
  4540                           
  4541                           	line	298
  4542  01D52  E5 25              	mov	a,?a_main+4+1
  4543  01D54  B4 06 07           	cbne	a,#low (6),u3281
  4544  01D57  E5 24              	mov	a,?a_main+4
  4545  01D59  B4 00 02           	cbne	a,#high (6),u3281
  4546  01D5C  80 02              	jmp	u3280
  4547  01D5E                     u3281:
  4548  01D5E  80 06              	jmp	l354
  4549  01D60                     u3280:
  4550  01D60  75 20  01          	mov	?a_main+0,#high(0+u2829)
  4551  01D63  75 21  38          	mov	?a_main+0+1,#low(0+u2829)
  4552  01D66                     l354:
  4553  01D66  E5 25              	mov	a,?a_main+4+1
  4554  01D68  B4 07 07           	cbne	a,#low (7),u3291
  4555  01D6B  E5 24              	mov	a,?a_main+4
  4556  01D6D  B4 00 02           	cbne	a,#high (7),u3291
  4557  01D70  80 02              	jmp	u3290
  4558  01D72                     u3291:
  4559  01D72  80 06              	jmp	l355
  4560  01D74                     u3290:
  4561  01D74  75 20  01          	mov	?a_main+0,#high(0+u2839)
  4562  01D77  75 21  1C          	mov	?a_main+0+1,#low(0+u2839)
  4563  01D7A                     l355:
  4564  01D7A  E5 25              	mov	a,?a_main+4+1
  4565  01D7C  B4 08 07           	cbne	a,#low (8),u3301
  4566  01D7F  E5 24              	mov	a,?a_main+4
  4567  01D81  B4 00 02           	cbne	a,#high (8),u3301
  4568  01D84  80 02              	jmp	u3300
  4569  01D86                     u3301:
  4570  01D86  80 06              	jmp	l356
  4571  01D88                     u3300:
  4572  01D88  75 20  01          	mov	?a_main+0,#high(0+u2849)
  4573  01D8B  75 21  54          	mov	?a_main+0+1,#low(0+u2849)
  4574  01D8E                     l356:
  4575                           ;main.c: 299: if (b == 9) result = "0.(5) ";
  4576                           
  4577                           	line	299
  4578  01D8E  E5 25              	mov	a,?a_main+4+1
  4579  01D90  B4 09 07           	cbne	a,#low (9),u3311
  4580  01D93  E5 24              	mov	a,?a_main+4
  4581  01D95  B4 00 02           	cbne	a,#high (9),u3311
  4582  01D98  80 02              	jmp	u3310
  4583  01D9A                     u3311:
  4584  01D9A  80 06              	jmp	l357
  4585  01D9C                     u3310:
  4586  01D9C  75 20  01          	mov	?a_main+0,#high(0+u2859)
  4587  01D9F  75 21  77          	mov	?a_main+0+1,#low(0+u2859)
  4588  01DA2                     l357:
  4589                           	line	300
  4590  01DA2                     l347:
  4591                           ;main.c: 300: }
  4592                           
  4593                           ;main.c: 301: if(a == 6)
  4594                           
  4595                           	line	301
  4596  01DA2  E5 23              	mov	a,?a_main+2+1
  4597  01DA4  B4 06 07           	cbne	a,#low (6),u3321
  4598  01DA7  E5 22              	mov	a,?a_main+2
  4599  01DA9  B4 00 02           	cbne	a,#high (6),u3321
  4600  01DAC  80 03              	jmp	u3320
  4601  01DAE                     u3321:
  4602  01DAE  02 1E75            	jmp	l358
  4603  01DB1                     u3320:
  4604                           ;main.c: 302: {
  4605                           
  4606                           ;main.c: 303: if (b == 0) result = "######"; if 
                                 (b == 1) result = "6     "; if (b == 2) result =
                                  "3     ";
  4607                           
  4608                           	line	303
  4609  01DB1  E5 25              	mov	a,?a_main+4+1
  4610  01DB3  45 24              	orl	a,?a_main+4
  4611  01DB5  70 02              	bnz	u3331
  4612  01DB7  80 02              	jmp	u3330
  4613  01DB9                     u3331:
  4614  01DB9  80 06              	jmp	l359
  4615  01DBB                     u3330:
  4616  01DBB  75 20  01          	mov	?a_main+0,#high(0+u2869)
  4617  01DBE  75 21  3F          	mov	?a_main+0+1,#low(0+u2869)
  4618  01DC1                     l359:
  4619  01DC1  E5 25              	mov	a,?a_main+4+1
  4620  01DC3  B4 01 07           	cbne	a,#low (1),u3341
  4621  01DC6  E5 24              	mov	a,?a_main+4
  4622  01DC8  B4 00 02           	cbne	a,#high (1),u3341
  4623  01DCB  80 02              	jmp	u3340
  4624  01DCD                     u3341:
  4625  01DCD  80 06              	jmp	l360
  4626  01DCF                     u3340:
  4627  01DCF  75 20  03          	mov	?a_main+0,#high(0+u2879)
  4628  01DD2  75 21  14          	mov	?a_main+0+1,#low(0+u2879)
  4629  01DD5                     l360:
  4630  01DD5  E5 25              	mov	a,?a_main+4+1
  4631  01DD7  B4 02 07           	cbne	a,#low (2),u3351
  4632  01DDA  E5 24              	mov	a,?a_main+4
  4633  01DDC  B4 00 02           	cbne	a,#high (2),u3351
  4634  01DDF  80 02              	jmp	u3350
  4635  01DE1                     u3351:
  4636  01DE1  80 06              	jmp	l361
  4637  01DE3                     u3350:
  4638  01DE3  75 20  03          	mov	?a_main+0,#high(0+u2889)
  4639  01DE6  75 21  29          	mov	?a_main+0+1,#low(0+u2889)
  4640  01DE9                     l361:
  4641                           ;main.c: 304: if (b == 3) result = "2     "; if 
                                 (b == 4) result = "1.5   "; if (b == 5) result =
                                  "1.2   ";
  4642                           
  4643                           	line	304
  4644  01DE9  E5 25              	mov	a,?a_main+4+1
  4645  01DEB  B4 03 07           	cbne	a,#low (3),u3361
  4646  01DEE  E5 24              	mov	a,?a_main+4
  4647  01DF0  B4 00 02           	cbne	a,#high (3),u3361
  4648  01DF3  80 02              	jmp	u3360
  4649  01DF5                     u3361:
  4650  01DF5  80 06              	jmp	l362
  4651  01DF7                     u3360:
  4652  01DF7  75 20  03          	mov	?a_main+0,#high(0+u2899)
  4653  01DFA  75 21  30          	mov	?a_main+0+1,#low(0+u2899)
  4654  01DFD                     l362:
  4655  01DFD  E5 25              	mov	a,?a_main+4+1
  4656  01DFF  B4 04 07           	cbne	a,#low (4),u3371
  4657  01E02  E5 24              	mov	a,?a_main+4
  4658  01E04  B4 00 02           	cbne	a,#high (4),u3371
  4659  01E07  80 02              	jmp	u3370
  4660  01E09                     u3371:
  4661  01E09  80 06              	jmp	l363
  4662  01E0B                     u3370:
  4663  01E0B  75 20  01          	mov	?a_main+0,#high(0+u2909)
  4664  01E0E  75 21  E0          	mov	?a_main+0+1,#low(0+u2909)
  4665  01E11                     l363:
  4666  01E11  E5 25              	mov	a,?a_main+4+1
  4667  01E13  B4 05 07           	cbne	a,#low (5),u3381
  4668  01E16  E5 24              	mov	a,?a_main+4
  4669  01E18  B4 00 02           	cbne	a,#high (5),u3381
  4670  01E1B  80 02              	jmp	u3380
  4671  01E1D                     u3381:
  4672  01E1D  80 06              	jmp	l364
  4673  01E1F                     u3380:
  4674  01E1F  75 20  01          	mov	?a_main+0,#high(0+u2919)
  4675  01E22  75 21  FC          	mov	?a_main+0+1,#low(0+u2919)
  4676  01E25                     l364:
  4677                           ;main.c: 305: if (b == 6) result = "1     "; if 
                                 (b == 7) result = "0.8571"; if (b == 8) result =
                                  "0.75  ";
  4678                           
  4679                           	line	305
  4680  01E25  E5 25              	mov	a,?a_main+4+1
  4681  01E27  B4 06 07           	cbne	a,#low (6),u3391
  4682  01E2A  E5 24              	mov	a,?a_main+4
  4683  01E2C  B4 00 02           	cbne	a,#high (6),u3391
  4684  01E2F  80 02              	jmp	u3390
  4685  01E31                     u3391:
  4686  01E31  80 06              	jmp	l365
  4687  01E33                     u3390:
  4688  01E33  75 20  03          	mov	?a_main+0,#high(0+u2929)
  4689  01E36  75 21  37          	mov	?a_main+0+1,#low(0+u2929)
  4690  01E39                     l365:
  4691  01E39  E5 25              	mov	a,?a_main+4+1
  4692  01E3B  B4 07 07           	cbne	a,#low (7),u3401
  4693  01E3E  E5 24              	mov	a,?a_main+4
  4694  01E40  B4 00 02           	cbne	a,#high (7),u3401
  4695  01E43  80 02              	jmp	u3400
  4696  01E45                     u3401:
  4697  01E45  80 06              	jmp	l366
  4698  01E47                     u3400:
  4699  01E47  75 20  01          	mov	?a_main+0,#high(0+u2939)
  4700  01E4A  75 21  23          	mov	?a_main+0+1,#low(0+u2939)
  4701  01E4D                     l366:
  4702  01E4D  E5 25              	mov	a,?a_main+4+1
  4703  01E4F  B4 08 07           	cbne	a,#low (8),u3411
  4704  01E52  E5 24              	mov	a,?a_main+4
  4705  01E54  B4 00 02           	cbne	a,#high (8),u3411
  4706  01E57  80 02              	jmp	u3410
  4707  01E59                     u3411:
  4708  01E59  80 06              	jmp	l367
  4709  01E5B                     u3410:
  4710  01E5B  75 20  01          	mov	?a_main+0,#high(0+u2949)
  4711  01E5E  75 21  AF          	mov	?a_main+0+1,#low(0+u2949)
  4712  01E61                     l367:
  4713                           ;main.c: 306: if (b == 9) result = "0.(6) ";
  4714                           
  4715                           	line	306
  4716  01E61  E5 25              	mov	a,?a_main+4+1
  4717  01E63  B4 09 07           	cbne	a,#low (9),u3421
  4718  01E66  E5 24              	mov	a,?a_main+4
  4719  01E68  B4 00 02           	cbne	a,#high (9),u3421
  4720  01E6B  80 02              	jmp	u3420
  4721  01E6D                     u3421:
  4722  01E6D  80 06              	jmp	l368
  4723  01E6F                     u3420:
  4724  01E6F  75 20  01          	mov	?a_main+0,#high(0+u2959)
  4725  01E72  75 21  70          	mov	?a_main+0+1,#low(0+u2959)
  4726  01E75                     l368:
  4727                           	line	307
  4728  01E75                     l358:
  4729                           ;main.c: 307: }
  4730                           
  4731                           ;main.c: 308: if(a == 7)
  4732                           
  4733                           	line	308
  4734  01E75  E5 23              	mov	a,?a_main+2+1
  4735  01E77  B4 07 07           	cbne	a,#low (7),u3431
  4736  01E7A  E5 22              	mov	a,?a_main+2
  4737  01E7C  B4 00 02           	cbne	a,#high (7),u3431
  4738  01E7F  80 03              	jmp	u3430
  4739  01E81                     u3431:
  4740  01E81  02 1F48            	jmp	l369
  4741  01E84                     u3430:
  4742                           ;main.c: 309: {
  4743                           
  4744                           ;main.c: 310: if (b == 0) result = "######"; if 
                                 (b == 1) result = "7     "; if (b == 2) result =
                                  "3.5   ";
  4745                           
  4746                           	line	310
  4747  01E84  E5 25              	mov	a,?a_main+4+1
  4748  01E86  45 24              	orl	a,?a_main+4
  4749  01E88  70 02              	bnz	u3441
  4750  01E8A  80 02              	jmp	u3440
  4751  01E8C                     u3441:
  4752  01E8C  80 06              	jmp	l370
  4753  01E8E                     u3440:
  4754  01E8E  75 20  01          	mov	?a_main+0,#high(0+u2969)
  4755  01E91  75 21  3F          	mov	?a_main+0+1,#low(0+u2969)
  4756  01E94                     l370:
  4757  01E94  E5 25              	mov	a,?a_main+4+1
  4758  01E96  B4 01 07           	cbne	a,#low (1),u3451
  4759  01E99  E5 24              	mov	a,?a_main+4
  4760  01E9B  B4 00 02           	cbne	a,#high (1),u3451
  4761  01E9E  80 02              	jmp	u3450
  4762  01EA0                     u3451:
  4763  01EA0  80 06              	jmp	l371
  4764  01EA2                     u3450:
  4765  01EA2  75 20  03          	mov	?a_main+0,#high(0+u2979)
  4766  01EA5  75 21  0D          	mov	?a_main+0+1,#low(0+u2979)
  4767  01EA8                     l371:
  4768  01EA8  E5 25              	mov	a,?a_main+4+1
  4769  01EAA  B4 02 07           	cbne	a,#low (2),u3461
  4770  01EAD  E5 24              	mov	a,?a_main+4
  4771  01EAF  B4 00 02           	cbne	a,#high (2),u3461
  4772  01EB2  80 02              	jmp	u3460
  4773  01EB4                     u3461:
  4774  01EB4  80 06              	jmp	l372
  4775  01EB6                     u3460:
  4776  01EB6  75 20  01          	mov	?a_main+0,#high(0+u2989)
  4777  01EB9  75 21  D2          	mov	?a_main+0+1,#low(0+u2989)
  4778  01EBC                     l372:
  4779                           ;main.c: 311: if (b == 3) result = "2.(3) "; if 
                                 (b == 4) result = "1.75  "; if (b == 5) result =
                                  "1.4   ";
  4780                           
  4781                           	line	311
  4782  01EBC  E5 25              	mov	a,?a_main+4+1
  4783  01EBE  B4 03 07           	cbne	a,#low (3),u3471
  4784  01EC1  E5 24              	mov	a,?a_main+4
  4785  01EC3  B4 00 02           	cbne	a,#high (3),u3471
  4786  01EC6  80 02              	jmp	u3470
  4787  01EC8                     u3471:
  4788  01EC8  80 06              	jmp	l373
  4789  01ECA                     u3470:
  4790  01ECA  75 20  01          	mov	?a_main+0,#high(0+u2999)
  4791  01ECD  75 21  85          	mov	?a_main+0+1,#low(0+u2999)
  4792  01ED0                     l373:
  4793  01ED0  E5 25              	mov	a,?a_main+4+1
  4794  01ED2  B4 04 07           	cbne	a,#low (4),u3481
  4795  01ED5  E5 24              	mov	a,?a_main+4
  4796  01ED7  B4 00 02           	cbne	a,#high (4),u3481
  4797  01EDA  80 02              	jmp	u3480
  4798  01EDC                     u3481:
  4799  01EDC  80 06              	jmp	l374
  4800  01EDE                     u3480:
  4801  01EDE  75 20  01          	mov	?a_main+0,#high(0+u3009)
  4802  01EE1  75 21  A8          	mov	?a_main+0+1,#low(0+u3009)
  4803  01EE4                     l374:
  4804  01EE4  E5 25              	mov	a,?a_main+4+1
  4805  01EE6  B4 05 07           	cbne	a,#low (5),u3491
  4806  01EE9  E5 24              	mov	a,?a_main+4
  4807  01EEB  B4 00 02           	cbne	a,#high (5),u3491
  4808  01EEE  80 02              	jmp	u3490
  4809  01EF0                     u3491:
  4810  01EF0  80 06              	jmp	l375
  4811  01EF2                     u3490:
  4812  01EF2  75 20  01          	mov	?a_main+0,#high(0+u3019)
  4813  01EF5  75 21  EE          	mov	?a_main+0+1,#low(0+u3019)
  4814  01EF8                     l375:
  4815                           ;main.c: 312: if (b == 6) result = "1.1(6)"; if 
                                 (b == 7) result = "1     "; if (b == 8) result =
                                  "0.875 ";
  4816                           
  4817                           	line	312
  4818  01EF8  E5 25              	mov	a,?a_main+4+1
  4819  01EFA  B4 06 07           	cbne	a,#low (6),u3501
  4820  01EFD  E5 24              	mov	a,?a_main+4
  4821  01EFF  B4 00 02           	cbne	a,#high (6),u3501
  4822  01F02  80 02              	jmp	u3500
  4823  01F04                     u3501:
  4824  01F04  80 06              	jmp	l376
  4825  01F06                     u3500:
  4826  01F06  75 20  01          	mov	?a_main+0,#high(0+u3029)
  4827  01F09  75 21  2A          	mov	?a_main+0+1,#low(0+u3029)
  4828  01F0C                     l376:
  4829  01F0C  E5 25              	mov	a,?a_main+4+1
  4830  01F0E  B4 07 07           	cbne	a,#low (7),u3511
  4831  01F11  E5 24              	mov	a,?a_main+4
  4832  01F13  B4 00 02           	cbne	a,#high (7),u3511
  4833  01F16  80 02              	jmp	u3510
  4834  01F18                     u3511:
  4835  01F18  80 06              	jmp	l377
  4836  01F1A                     u3510:
  4837  01F1A  75 20  03          	mov	?a_main+0,#high(0+u3039)
  4838  01F1D  75 21  37          	mov	?a_main+0+1,#low(0+u3039)
  4839  01F20                     l377:
  4840  01F20  E5 25              	mov	a,?a_main+4+1
  4841  01F22  B4 08 07           	cbne	a,#low (8),u3521
  4842  01F25  E5 24              	mov	a,?a_main+4
  4843  01F27  B4 00 02           	cbne	a,#high (8),u3521
  4844  01F2A  80 02              	jmp	u3520
  4845  01F2C                     u3521:
  4846  01F2C  80 06              	jmp	l378
  4847  01F2E                     u3520:
  4848  01F2E  75 20  01          	mov	?a_main+0,#high(0+u3049)
  4849  01F31  75 21  46          	mov	?a_main+0+1,#low(0+u3049)
  4850  01F34                     l378:
  4851                           ;main.c: 313: if (b == 9) result = "0.(7) ";
  4852                           
  4853                           	line	313
  4854  01F34  E5 25              	mov	a,?a_main+4+1
  4855  01F36  B4 09 07           	cbne	a,#low (9),u3531
  4856  01F39  E5 24              	mov	a,?a_main+4
  4857  01F3B  B4 00 02           	cbne	a,#high (9),u3531
  4858  01F3E  80 02              	jmp	u3530
  4859  01F40                     u3531:
  4860  01F40  80 06              	jmp	l379
  4861  01F42                     u3530:
  4862  01F42  75 20  01          	mov	?a_main+0,#high(0+u3059)
  4863  01F45  75 21  62          	mov	?a_main+0+1,#low(0+u3059)
  4864  01F48                     l379:
  4865                           	line	314
  4866  01F48                     l369:
  4867                           	line	315
  4868  01F48                     l299:
  4869                           	line	316
  4870  01F48                     l3:
  4871                           	line	7
  4872  01F48  02 0357            	jmp	l4
  4873  01F4B                     l5:
  4874                           ;main.c: 314: }
  4875                           
  4876                           ;main.c: 315: }
  4877                           
  4878                           ;main.c: 316: }
  4879                           
  4880                           ;main.c: 317: }
  4881                           
  4882                           	line	317
  4883  01F4B                     l2:
  4884  01F4B  22                 	ret
  4885  01F4C                     f1591:
  4886  01F4C  02 0348            	j	f1590
  4887                           	FNSIZE	_main,8,0
  4888                           	global	?a_main
  4889  0000                     f1592	equ	0
  4890                           	psect	strings,class=CODE
  4891                           	psect	strings
  4892  00100                     u2439:
  4893  00100  30 2E 31 34 32 38  	db	"0.1428",0
              00                 
  4894  00107                     u2539:
  4895  00107  30 2E 32 38 35 37  	db	"0.2857",0
              00                 
  4896  0010E                     u2639:
  4897  0010E  30 2E 34 32 38 35  	db	"0.4285",0
              00                 
  4898  00115                     u2739:
  4899  00115  30 2E 35 37 31 34  	db	"0.5714",0
              00                 
  4900  0011C                     u2839:
  4901  0011C  30 2E 37 31 34 32  	db	"0.7142",0
              00                 
  4902  00123                     u2939:
  4903  00123  30 2E 38 35 37 31  	db	"0.8571",0
              00                 
  4904  0012A                     u3029:
  4905  0012A  31 2E 31 28 36 29  	db	"1.1(6)",0
              00                 
  4906  00131                     u2429:
  4907  00131  30 2E 31 28 36 29  	db	"0.1(6)",0
              00                 
  4908  00138                     u2829:
  4909  00138  30 2E 38 28 33 29  	db	"0.8(3)",0
              00                 
  4910  0013F                     u2569:
  4911  0013F                     u2769:
  4912  0013F                     u2869:
  4913  0013F                     u2349:
  4914  0013F                     u2369:
  4915  0013F                     u2969:
  4916  0013F                     u2469:
  4917  0013F                     u2669:
  4918  0013F  23 23 23 23 23 23  	db	"######",0
              00                 
  4919  00146                     u3049:
  4920  00146  30 2E 38 37 35 20  	db	"0.875 ",0
              00                 
  4921  0014D                     u2649:
  4922  0014D  30 2E 33 37 35 20  	db	"0.375 ",0
              00                 
  4923  00154                     u2849:
  4924  00154  30 2E 36 32 35 20  	db	"0.625 ",0
              00                 
  4925  0015B                     u2449:
  4926  0015B  30 2E 31 32 35 20  	db	"0.125 ",0
              00                 
  4927  00162                     u3059:
  4928  00162  30 2E 28 37 29 20  	db	"0.(7) ",0
              00                 
  4929  00169                     u2799:
  4930  00169  31 2E 28 36 29 20  	db	"1.(6) ",0
              00                 
  4931  00170                     u2729:
  4932  00170                     u2959:
  4933  00170                     u2499:
  4934  00170  30 2E 28 36 29 20  	db	"0.(6) ",0
              00                 
  4935  00177                     u2859:
  4936  00177  30 2E 28 35 29 20  	db	"0.(5) ",0
              00                 
  4937  0017E                     u2759:
  4938  0017E  30 2E 28 34 29 20  	db	"0.(4) ",0
              00                 
  4939  00185                     u2999:
  4940  00185  32 2E 28 33 29 20  	db	"2.(3) ",0
              00                 
  4941  0018C                     u2699:
  4942  0018C  31 2E 28 33 29 20  	db	"1.(3) ",0
              00                 
  4943  00193                     u2399:
  4944  00193                     u2529:
  4945  00193                     u2659:
  4946  00193  30 2E 28 33 29 20  	db	"0.(3) ",0
              00                 
  4947  0019A                     u2559:
  4948  0019A  30 2E 28 32 29 20  	db	"0.(2) ",0
              00                 
  4949  001A1                     u2459:
  4950  001A1  30 2E 28 31 29 20  	db	"0.(1) ",0
              00                 
  4951  001A8                     u3009:
  4952  001A8  31 2E 37 35 20 20  	db	"1.75  ",0
              00                 
  4953  001AF                     u2949:
  4954  001AF                     u2609:
  4955  001AF  30 2E 37 35 20 20  	db	"0.75  ",0
              00                 
  4956  001B6                     u2809:
  4957  001B6  31 2E 32 35 20 20  	db	"1.25  ",0
              00                 
  4958  001BD                     u2409:
  4959  001BD                     u2549:
  4960  001BD  30 2E 32 35 20 20  	db	"0.25  ",0
              00                 
  4961  001C4                     u2719:
  4962  001C4  30 2E 38 20 20 20  	db	"0.8   ",0
              00                 
  4963  001CB                     u2619:
  4964  001CB  30 2E 36 20 20 20  	db	"0.6   ",0
              00                 
  4965  001D2                     u2989:
  4966  001D2  33 2E 35 20 20 20  	db	"3.5   ",0
              00                 
  4967  001D9                     u2789:
  4968  001D9  32 2E 35 20 20 20  	db	"2.5   ",0
              00                 
  4969  001E0                     u2589:
  4970  001E0                     u2909:
  4971  001E0  31 2E 35 20 20 20  	db	"1.5   ",0
              00                 
  4972  001E7                     u2509:
  4973  001E7                     u2749:
  4974  001E7                     u2629:
  4975  001E7                     u2389:
  4976  001E7  30 2E 35 20 20 20  	db	"0.5   ",0
              00                 
  4977  001EE                     u3019:
  4978  001EE  31 2E 34 20 20 20  	db	"1.4   ",0
              00                 
  4979  001F5                     u2519:
  4980  001F5  30 2E 34 20 20 20  	db	"0.4   ",0
              00                 
  4981  001FC                     u2919:
  4982  001FC  31 2E 32 20 20 20  	db	"1.2   ",0
              00                 
  4983  00203                     u2419:
  4984  00203  30 2E 32 20 20 20  	db	"0.2   ",0
              00                 
  4985  0020A                     u2319:
  4986  0020A  34 39 20 20 20 20  	db	"49    ",0
              00                 
  4987  00211                     u929:
  4988  00211  2D 39 20 20 20 20  	db	"-9    ",0
              00                 
  4989  00218                     u2229:
  4990  00218  34 38 20 20 20 20  	db	"48    ",0
              00                 
  4991  0021F                     u2289:
  4992  0021F                     u2019:
  4993  0021F  32 38 20 20 20 20  	db	"28    ",0
              00                 
  4994  00226                     u1839:
  4995  00226                     u1909:
  4996  00226                     u2179:
  4997  00226  31 38 20 20 20 20  	db	"18    ",0
              00                 
  4998  0022D                     u1029:
  4999  0022D                     u919:
  5000  0022D  2D 38 20 20 20 20  	db	"-8    ",0
              00                 
  5001  00234                     u1939:
  5002  00234  32 37 20 20 20 20  	db	"27    ",0
              00                 
  5003  0023B                     u909:
  5004  0023B                     u1019:
  5005  0023B                     u1129:
  5006  0023B  2D 37 20 20 20 20  	db	"-7    ",0
              00                 
  5007  00242                     u2329:
  5008  00242  35 36 20 20 20 20  	db	"56    ",0
              00                 
  5009  00249                     u2039:
  5010  00249                     u2209:
  5011  00249  33 36 20 20 20 20  	db	"36    ",0
              00                 
  5012  00250                     u1829:
  5013  00250                     u1989:
  5014  00250                     u829:
  5015  00250  31 36 20 20 20 20  	db	"16    ",0
              00                 
  5016  00257                     u1229:
  5017  00257                     u899:
  5018  00257                     u1119:
  5019  00257                     u1009:
  5020  00257  2D 36 20 20 20 20  	db	"-6    ",0
              00                 
  5021  0025E                     u2139:
  5022  0025E  34 35 20 20 20 20  	db	"45    ",0
              00                 
  5023  00265                     u2299:
  5024  00265                     u2119:
  5025  00265  33 35 20 20 20 20  	db	"35    ",0
              00                 
  5026  0026C                     u2099:
  5027  0026C  32 35 20 20 20 20  	db	"25    ",0
              00                 
  5028  00273                     u2079:
  5029  00273                     u729:
  5030  00273                     u819:
  5031  00273                     u1899:
  5032  00273  31 35 20 20 20 20  	db	"15    ",0
              00                 
  5033  0027A                     u1329:
  5034  0027A                     u999:
  5035  0027A                     u1219:
  5036  0027A                     u889:
  5037  0027A                     u1109:
  5038  0027A  2D 35 20 20 20 20  	db	"-5    ",0
              00                 
  5039  00281                     u2239:
  5040  00281  35 34 20 20 20 20  	db	"54    ",0
              00                 
  5041  00288                     u2189:
  5042  00288                     u1929:
  5043  00288                     u2009:
  5044  00288  32 34 20 20 20 20  	db	"24    ",0
              00                 
  5045  0028F                     u2269:
  5046  0028F                     u809:
  5047  0028F                     u719:
  5048  0028F                     u1819:
  5049  0028F                     u629:
  5050  0028F  31 34 20 20 20 20  	db	"14    ",0
              00                 
  5051  00296                     u1319:
  5052  00296                     u1099:
  5053  00296                     u1209:
  5054  00296                     u879:
  5055  00296                     u1429:
  5056  00296                     u989:
  5057  00296  2D 34 20 20 20 20  	db	"-4    ",0
              00                 
  5058  0029D                     u2339:
  5059  0029D  36 33 20 20 20 20  	db	"63    ",0
              00                 
  5060  002A4                     u799:
  5061  002A4                     u619:
  5062  002A4                     u709:
  5063  002A4                     u529:
  5064  002A4  31 33 20 20 20 20  	db	"13    ",0
              00                 
  5065  002AB                     u1199:
  5066  002AB                     u1309:
  5067  002AB                     u869:
  5068  002AB                     u979:
  5069  002AB                     u1529:
  5070  002AB                     u1089:
  5071  002AB                     u1419:
  5072  002AB  2D 33 20 20 20 20  	db	"-3    ",0
              00                 
  5073  002B2                     u2219:
  5074  002B2                     u2309:
  5075  002B2  34 32 20 20 20 20  	db	"42    ",0
              00                 
  5076  002B9                     u2029:
  5077  002B9  33 32 20 20 20 20  	db	"32    ",0
              00                 
  5078  002C0                     u519:
  5079  002C0                     u429:
  5080  002C0                     u1889:
  5081  002C0                     u1979:
  5082  002C0                     u1809:
  5083  002C0                     u699:
  5084  002C0                     u789:
  5085  002C0                     u609:
  5086  002C0                     u2169:
  5087  002C0  31 32 20 20 20 20  	db	"12    ",0
              00                 
  5088  002C7                     u1409:
  5089  002C7                     u1629:
  5090  002C7                     u1519:
  5091  002C7                     u1079:
  5092  002C7                     u969:
  5093  002C7                     u859:
  5094  002C7                     u1189:
  5095  002C7                     u1299:
  5096  002C7  2D 32 20 20 20 20  	db	"-2    ",0
              00                 
  5097  002CE                     u2279:
  5098  002CE                     u1919:
  5099  002CE  32 31 20 20 20 20  	db	"21    ",0
              00                 
  5100  002D5                     u329:
  5101  002D5                     u779:
  5102  002D5                     u509:
  5103  002D5                     u689:
  5104  002D5                     u599:
  5105  002D5                     u419:
  5106  002D5  31 31 20 20 20 20  	db	"11    ",0
              00                 
  5107  002DC                     u1619:
  5108  002DC                     u1509:
  5109  002DC                     u1399:
  5110  002DC                     u1179:
  5111  002DC                     u1289:
  5112  002DC                     u959:
  5113  002DC                     u849:
  5114  002DC                     u1069:
  5115  002DC  2D 31 20 20 20 20  	db	"-1    ",0
              00                 
  5116  002E3                     u2129:
  5117  002E3  34 30 20 20 20 20  	db	"40    ",0
              00                 
  5118  002EA                     u2109:
  5119  002EA                     u2199:
  5120  002EA  33 30 20 20 20 20  	db	"30    ",0
              00                 
  5121  002F1                     u1999:
  5122  002F1                     u2089:
  5123  002F1  32 30 20 20 20 20  	db	"20    ",0
              00                 
  5124  002F8                     u409:
  5125  002F8                     u2069:
  5126  002F8                     u319:
  5127  002F8                     u229:
  5128  002F8                     u1799:
  5129  002F8                     u769:
  5130  002F8                     u679:
  5131  002F8                     u589:
  5132  002F8                     u499:
  5133  002F8  31 30 20 20 20 20  	db	"10    ",0
              00                 
  5134  002FF                     u579:
  5135  002FF                     u669:
  5136  002FF                     u1879:
  5137  002FF                     u129:
  5138  002FF                     u309:
  5139  002FF                     u219:
  5140  002FF                     u399:
  5141  002FF                     u1739:
  5142  002FF                     u759:
  5143  002FF                     u489:
  5144  002FF  39 20 20 20 20 20  	db	"9     ",0
              00                 
  5145  00306                     u479:
  5146  00306                     u1969:
  5147  00306                     u119:
  5148  00306                     u209:
  5149  00306                     u749:
  5150  00306                     u1789:
  5151  00306                     u389:
  5152  00306                     u569:
  5153  00306                     u659:
  5154  00306                     u299:
  5155  00306                     u1729:
  5156  00306  38 20 20 20 20 20  	db	"8     ",0
              00                 
  5157  0030D                     u2979:
  5158  0030D                     u2259:
  5159  0030D                     u1719:
  5160  0030D                     u109:
  5161  0030D                     u199:
  5162  0030D                     u379:
  5163  0030D                     u469:
  5164  0030D                     u289:
  5165  0030D                     u649:
  5166  0030D                     u739:
  5167  0030D                     u1539:
  5168  0030D                     u559:
  5169  0030D  37 20 20 20 20 20  	db	"7     ",0
              00                 
  5170  00314                     u369:
  5171  00314                     u279:
  5172  00314                     u2879:
  5173  00314                     u189:
  5174  00314                     u1549:
  5175  00314                     u1439:
  5176  00314                     u2159:
  5177  00314                     u1709:
  5178  00314                     u99:
  5179  00314                     u1779:
  5180  00314                     u549:
  5181  00314                     u1869:
  5182  00314                     u459:
  5183  00314                     u639:
  5184  00314  36 20 20 20 20 20  	db	"6     ",0
              00                 
  5185  0031B                     u2779:
  5186  0031B                     u1339:
  5187  0031B                     u449:
  5188  0031B                     u539:
  5189  0031B                     u359:
  5190  0031B                     u1449:
  5191  0031B                     u2059:
  5192  0031B                     u89:
  5193  0031B                     u1699:
  5194  0031B                     u179:
  5195  0031B                     u269:
  5196  0031B                     u1559:
  5197  0031B  35 20 20 20 20 20  	db	"5     ",0
              00                 
  5198  00322                     u1689:
  5199  00322                     u1349:
  5200  00322                     u1959:
  5201  00322                     u1239:
  5202  00322                     u1769:
  5203  00322                     u79:
  5204  00322                     u169:
  5205  00322                     u1459:
  5206  00322                     u259:
  5207  00322                     u1569:
  5208  00322                     u349:
  5209  00322                     u439:
  5210  00322                     u2679:
  5211  00322  34 20 20 20 20 20  	db	"4     ",0
              00                 
  5212  00329                     u2579:
  5213  00329                     u1139:
  5214  00329                     u69:
  5215  00329                     u249:
  5216  00329                     u159:
  5217  00329                     u339:
  5218  00329                     u2889:
  5219  00329                     u1359:
  5220  00329                     u1249:
  5221  00329                     u1579:
  5222  00329                     u1469:
  5223  00329                     u1859:
  5224  00329                     u1679:
  5225  00329  33 20 20 20 20 20  	db	"3     ",0
              00                 
  5226  00330                     u59:
  5227  00330                     u1589:
  5228  00330                     u1259:
  5229  00330                     u1369:
  5230  00330                     u2899:
  5231  00330                     u1039:
  5232  00330                     u2689:
  5233  00330                     u149:
  5234  00330                     u1149:
  5235  00330                     u2479:
  5236  00330                     u239:
  5237  00330                     u1669:
  5238  00330                     u1479:
  5239  00330                     u1759:
  5240  00330  32 20 20 20 20 20  	db	"2     ",0
              00                 
  5241  00337                     u1489:
  5242  00337                     u2929:
  5243  00337                     u139:
  5244  00337                     u1659:
  5245  00337                     u1599:
  5246  00337                     u2819:
  5247  00337                     u3039:
  5248  00337                     u1159:
  5249  00337                     u2599:
  5250  00337                     u2489:
  5251  00337                     u1049:
  5252  00337                     u939:
  5253  00337                     u1269:
  5254  00337                     u2379:
  5255  00337                     u2709:
  5256  00337                     u1379:
  5257  00337                     u49:
  5258  00337  31 20 20 20 20 20  	db	"1     ",0
              00                 
  5259  0033E                     u39:
  5260  0033E                     u19:
  5261  0033E                     u1949:
  5262  0033E                     u1749:
  5263  0033E                     u1849:
  5264  0033E                     u29:
  5265  0033E                     u1279:
  5266  0033E                     u2359:
  5267  0033E                     u1389:
  5268  0033E                     u1169:
  5269  0033E                     u1059:
  5270  0033E                     u949:
  5271  0033E                     u839:
  5272  0033E                     u1639:
  5273  0033E                     u1649:
  5274  0033E                     u2049:
  5275  0033E                     u1609:
  5276  0033E                     u2249:
  5277  0033E                     u1499:
  5278  0033E                     u2149:
  5279  0033E  30 20 20 20 20 20  	db	"0     ",0
              00                 
  5280  0000                     _A10	equ	162
  5281  0000                     _A11	equ	163
  5282  0000                     _A12	equ	164
  5283  0000                     _A13	equ	165
  5284  0000                     _A14	equ	166
  5285  0000                     _A15	equ	167
  5286  0000                     _A8	equ	160
  5287  0000                     _A9	equ	161
  5288  0000                     _AC	equ	214
  5289  0000                     _ACC0	equ	224
  5290  0000                     _ACC1	equ	225
  5291  0000                     _ACC2	equ	226
  5292  0000                     _ACC3	equ	227
  5293  0000                     _ACC4	equ	228
  5294  0000                     _ACC5	equ	229
  5295  0000                     _ACC6	equ	230
  5296  0000                     _ACC7	equ	231
  5297  0000                     _AD0	equ	128
  5298  0000                     _AD1	equ	129
  5299  0000                     _AD2	equ	130
  5300  0000                     _AD3	equ	131
  5301  0000                     _AD4	equ	132
  5302  0000                     _AD5	equ	133
  5303  0000                     _AD6	equ	134
  5304  0000                     _AD7	equ	135
  5305  0000                     _B0	equ	240
  5306  0000                     _B1	equ	241
  5307  0000                     _B2	equ	242
  5308  0000                     _B3	equ	243
  5309  0000                     _B4	equ	244
  5310  0000                     _B5	equ	245
  5311  0000                     _B6	equ	246
  5312  0000                     _B7	equ	247
  5313  0000                     _CPRL2	equ	200
  5314  0000                     _CT2	equ	201
  5315  0000                     _CY	equ	215
  5316  0000                     _EA	equ	175
  5317  0000                     _ES	equ	172
  5318  0000                     _ET0	equ	169
  5319  0000                     _ET1	equ	171
  5320  0000                     _ET2	equ	173
  5321  0000                     _EX0	equ	168
  5322  0000                     _EX1	equ	170
  5323  0000                     _EXEN2	equ	203
  5324  0000                     _EXF2	equ	206
  5325  0000                     _F0	equ	213
  5326  0000                     _IE0	equ	137
  5327  0000                     _IE1	equ	139
  5328  0000                     _INT0	equ	178
  5329  0000                     _INT1	equ	179
  5330  0000                     _IT0	equ	136
  5331  0000                     _IT1	equ	138
  5332  0000                     _OV	equ	210
  5333  0000                     _P	equ	208
  5334  0000                     _P00	equ	128
  5335  0000                     _P01	equ	129
  5336  0000                     _P02	equ	130
  5337  0000                     _P03	equ	131
  5338  0000                     _P04	equ	132
  5339  0000                     _P05	equ	133
  5340  0000                     _P06	equ	134
  5341  0000                     _P07	equ	135
  5342  0000                     _P10	equ	144
  5343  0000                     _P11	equ	145
  5344  0000                     _P12	equ	146
  5345  0000                     _P13	equ	147
  5346  0000                     _P14	equ	148
  5347  0000                     _P15	equ	149
  5348  0000                     _P16	equ	150
  5349  0000                     _P17	equ	151
  5350  0000                     _P20	equ	160
  5351  0000                     _P21	equ	161
  5352  0000                     _P22	equ	162
  5353  0000                     _P23	equ	163
  5354  0000                     _P24	equ	164
  5355  0000                     _P25	equ	165
  5356  0000                     _P26	equ	166
  5357  0000                     _P27	equ	167
  5358  0000                     _P30	equ	176
  5359  0000                     _P31	equ	177
  5360  0000                     _P32	equ	178
  5361  0000                     _P33	equ	179
  5362  0000                     _P34	equ	180
  5363  0000                     _P35	equ	181
  5364  0000                     _P36	equ	182
  5365  0000                     _P37	equ	183
  5366  0000                     _PS	equ	188
  5367  0000                     _PT0	equ	185
  5368  0000                     _PT1	equ	187
  5369  0000                     _PT2	equ	189
  5370  0000                     _PX0	equ	184
  5371  0000                     _PX1	equ	186
  5372  0000                     _RB8	equ	154
  5373  0000                     _RCLK	equ	205
  5374  0000                     _RD	equ	183
  5375  0000                     _REN	equ	156
  5376  0000                     _RI	equ	152
  5377  0000                     _RS0	equ	211
  5378  0000                     _RS1	equ	212
  5379  0000                     _RXD	equ	176
  5380  0000                     _SM0	equ	159
  5381  0000                     _SM1	equ	158
  5382  0000                     _SM2	equ	157
  5383  0000                     _T0	equ	180
  5384  0000                     _T1	equ	181
  5385  0000                     _T2	equ	144
  5386  0000                     _T2EX	equ	145
  5387  0000                     _TB8	equ	155
  5388  0000                     _TCLK	equ	204
  5389  0000                     _TF0	equ	141
  5390  0000                     _TF1	equ	143
  5391  0000                     _TF2	equ	207
  5392  0000                     _TI	equ	153
  5393  0000                     _TR0	equ	140
  5394  0000                     _TR1	equ	142
  5395  0000                     _TR2	equ	202
  5396  0000                     _TXD	equ	177
  5397  0000                     _WR	equ	182
  5398  0000                     _ACC	equ	224
  5399  0000                     _B	equ	240
  5400  0000                     _DPH	equ	131
  5401  0000                     _DPL	equ	130
  5402  0000                     _IE	equ	168
  5403  0000                     _IP	equ	184
  5404  0000                     _P0	equ	128
  5405  0000                     _P1	equ	144
  5406  0000                     _P2	equ	160
  5407  0000                     _P3	equ	176
  5408  0000                     _PCON	equ	135
  5409  0000                     _PSW	equ	208
  5410  0000                     _RCAP2H	equ	203
  5411  0000                     _RCAP2L	equ	202
  5412  0000                     _SBUF	equ	153
  5413  0000                     _SCON	equ	152
  5414  0000                     _SP	equ	129
  5415  0000                     _T2CON	equ	200
  5416  0000                     _TCON	equ	136
  5417  0000                     _TH0	equ	140
  5418  0000                     _TH1	equ	141
  5419  0000                     _TH2	equ	205
  5420  0000                     _TL0	equ	138
  5421  0000                     _TL1	equ	139
  5422  0000                     _TL2	equ	204
  5423  0000                     _TMOD	equ	137
  5424  0000                     _ACC_BITS	equ	224
  5425  0000                     _B_BITS	equ	240
  5426  0000                     _IE_BITS	equ	168
  5427  0000                     _IP_BITS	equ	184
  5428  0000                     _P0_BITS	equ	128
  5429  0000                     _P1_BITS	equ	144
  5430  0000                     _P2_BITS	equ	160
  5431  0000                     _P3_BITS	equ	176
  5432  0000                     _PCON_BITS	equ	135
  5433  0000                     _PSW_BITS	equ	208
  5434  0000                     _SCON_BITS	equ	152
  5435  0000                     _T2CON_BITS	equ	200
  5436  0000                     _TCON_BITS	equ	136
  5437  0000                     _TMOD_BITS	equ	137


HI-TECH Software 8051 Macro Assembler V9.60                                Page 2
Symbol Table                                           Thu Jun 09 13:44:38 2022

       ?a_main 00020              _B 000F0              l2 01F4B  
            l3 01F48              l4 00357              l5 01F4B  
            _P 000D0              l6 0036F              l7 0039B  
            l8 0038C              l9 0039B             _B0 000F0  
           _B1 000F1             _B2 000F2             _B3 000F3  
           _B4 000F4             _B5 000F5             _B6 000F6  
           _A8 000A0             _B7 000F7             _A9 000A1  
           _F0 000D5             _AC 000D6             l10 003C7  
           l11 003B8             l20 00465             l12 003C7  
           l21 00456             l13 003F3             l30 00503  
           l22 00465             l14 003E4             _EA 000AF  
           l31 004F4             l23 00491             l15 003F3  
           l40 005F8             l32 00503             l24 00482  
           l16 0040D             l41 00626             l33 0052F  
           l25 00491             l17 00439             l50 006CA  
           l42 00CCB             l34 00520             l26 004AB  
           l18 0042A             l51 006DE             l43 00706  
           l35 0052F             l27 004D7             l19 00439  
           _P0 00080             l60 00789             l52 006F2  
           l44 00652             l36 00549             l28 004C8  
           _P1 00090             l61 0079D             l53 00706  
           l45 00666             l37 005CE             l29 004D7  
           _P2 000A0             l70 00848             l62 007B1  
           l54 007D9             l46 0067A             l38 005F8  
           _P3 000B0             l71 0085C             l63 007C5  
           l55 00725             l47 0068E             l39 005EA  
           l80 00907             l72 00870             l64 007D9  
           l56 00739             l48 006A2             l81 0091B  
           l73 00884             l65 008AC             l57 0074D  
           l49 006B6             l90 009C6             l82 0092F  
           l74 00898             l66 007F8             l58 00761  
           _IE 000A8             l91 009DA             l83 00943  
           l75 008AC             l67 0080C             l59 00775  
           _T0 000B4             l92 009EE             l84 00957  
           l76 0097F             l68 00820             _T1 000B5  
           l93 00A02             l85 0096B             l77 008CB  
           l69 00834             _T2 00090             l94 00A16  
           l86 0097F             l78 008DF             l95 00A2A  
           l87 00A52             l79 008F3             l96 00A3E  
           l88 0099E             _ES 000AC             l97 00A52  
           l89 009B2             l98 00B25             _CY 000D7  
           l99 00A71             _IP 000B8             _RD 000B7  
           u10 00360             u11 0035E             u20 00376  
           _RI 00098             u21 00374             u30 003A2  
           u31 003A0             u40 003CE             _TI 00099  
           u41 003CC             u50 003FE             _PS 000BC  
           u51 003FC             u19 0033E             _OV 000D2  
           u60 00414             u29 0033E             u61 00412  
           _SP 00081             u70 00440             u39 0033E  
           u71 0043E             u80 0046C             u49 00337  
           u81 0046A             u90 0049C             u59 00330  
           u91 0049A             u69 00329             u79 00322  
           _WR 000B6             u89 0031B             u99 00314  
       _B_BITS 000F0         _RCAP2H 000CB         _RCAP2L 000CA  
          _A10 000A2            _A11 000A3            _A12 000A4  
          _A13 000A5            _A14 000A6            _A15 000A7  
          _AD0 00080            l100 00A85            _AD1 00081  
          l101 00A99            _AD2 00082            l110 00B44  
          l102 00AAD            _AD3 00083            l111 00B58  
          l103 00AC1            _AD4 00084            l200 011FB  
          l120 00CCB            l112 00B6C            l104 00AD5  
          _AD5 00085            l201 0120F            l121 00C17  
          l113 00B80            l105 00AE9            _AD6 00086  
          l210 012BA            l202 01223            l130 00CCB  
          l122 00C2B            l114 00B94            l106 00AFD  
          _AD7 00087            l211 012CE            l203 01237  
          l131 0136E            l123 00C3F            l115 00BA8  
          l107 00B11            l300 01983            l220 01952  
          l212 012E2            l204 0124B            l140 00D81  
          l132 00DA9            l124 00C53            l116 00BBC  
          l108 00B25            l301 0197D            l221 0138D  
          l213 012F6            l205 0125F            l141 00D95  
          l133 00CF5            l125 00C67            l117 00BD0  
          l109 00BF8            l310 01A1A            l302 01983  
          l230 01438            l222 01460            l214 0130A  
          l206 01273            l150 00E40            l142 00DA9  
          l134 00D09            l126 00C7B            l118 00BE4  
          l311 01A2E            l303 01A56            l231 0144C  
          l223 013AC            l215 0131E            l207 01287  
          l151 00E54            l143 00E7C            l135 00D1D  
          l127 00C8F            l119 00BF8            l320 01AD9  
          l312 01A42            l304 019A2            l240 014F7  
          l232 01460            l224 013C0            l216 01332  
          l208 0129B            l160 00EFF            l152 00E68  
          l144 00DC8            l136 00D31            l128 00CA3  
          l321 01AED            l313 01A56            l305 019B6  
          l241 0150B            l233 01533            l225 013D4  
          l217 01346            l209 0136E            l161 00F13  
          l153 00E7C            l145 00DDC            l137 00D45  
          l129 00CB7            l330 01B98            l322 01B01  
          l314 01B29            l306 019CA            l250 015B6  
          l242 0151F            l234 0147F            l226 013E8  
          l218 0135A            l170 00FBE            l162 00F27  
          l154 00F4F            l146 00DF0            l138 00D59  
          l331 01BAC            l323 01B15            l315 01A75  
          l307 019DE            l251 015CA            l243 01533  
          l235 01493            l227 013FC            l219 0136E  
          l171 00FD2            l163 00F3B            l155 00E9B  
          l147 00E04            l139 00D6D            l340 01C57  
          l332 01BC0            l324 01B29            l316 01A89  
          l308 019F2            l260 01675            l252 015DE  
          l244 01606            l236 014A7            l228 01410  
          l180 0107D            l172 00FE6            l164 00F4F  
          l156 00EAF            l148 00E18            _ACC 000E0  
          l341 01C6B            l333 01BD4            l325 01BFC  
          l317 01A9D            l309 01A06            l261 01689  
          l253 015F2            l245 01552            l237 014BB  
          l229 01424            l181 01091            l173 00FFA  
          l165 01022            l157 00EC3            l149 00E2C  
          l350 01D16            l342 01C7F            l334 01BE8  
          l326 01B48            l318 01AB1            l270 01734  
          l262 0169D            l254 01606            l246 01566  
          l238 014CF            l190 0113C            l182 010A5  
          l174 0100E            l166 00F6E            l158 00ED7  
          l351 01D2A            l343 01C93            l335 01BFC  
          l327 01B5C            l319 01AC5            l271 01748  
          l263 016B1            l255 016D9            l247 0157A  
          l239 014E3            l191 01150            l183 010B9  
          l175 01022            l167 00F82            l159 00EEB  
          _P00 00080            l360 01DD5            l352 01D3E  
          l344 01CA7            l336 01CCF            l328 01B70  
          l280 017F3            l272 0175C            l264 016C5  
          l256 01625            l248 0158E            l192 01164  
          l184 010CD            l176 010F5            l168 00F96  
          _P01 00081            l361 01DE9            l353 01D52  
          l345 01CBB            l337 01C1B            l329 01B84  
          l281 01807            l273 01770            l265 016D9  
          l257 01639            l249 015A2            l193 01178  
          l185 010E1            l177 01041            l169 00FAA  
          _P10 00090            _P02 00082            l370 01E94  
          l362 01DFD            l354 01D66            l346 01CCF  
          l338 01C2F            l290 018B2            l282 0181B  
          l274 01784            l266 017AC            l258 0164D  
          l194 0118C            l186 010F5            l178 01055  
          _P11 00091            _P03 00083            l371 01EA8  
          l363 01E11            l355 01D7A            l347 01DA2  
          l339 01C43            l291 018C6            l283 0182F  
          l275 01798            l267 016F8            l259 01661  
          l195 011A0            l187 011C8            l179 01069  
          _P20 000A0            _P12 00092            _P04 00084  
          l372 01EBC            l364 01E25            l356 01D8E  
          l348 01CEE            l292 018DA            l284 01843  
          l276 017AC            l268 0170C            l196 011B4  
          l188 01114            _P21 000A1            _P13 00093  
          _P05 00085            l373 01ED0            l365 01E39  
          l357 01DA2            l349 01D02            l293 018EE  
          l285 01857            l277 0187F            l269 01720  
          l197 011C8            l189 01128            _P30 000B0  
          _P22 000A2            _P14 00094            _P06 00086  
          l374 01EE4            l366 01E4D            l358 01E75  
          l294 01902            l286 0186B            l278 017CB  
          l198 0129B            _P31 000B1            _P23 000A3  
          _P15 00095            _P07 00087            l375 01EF8  
          l367 01E61            l359 01DC1            l295 01916  
          l287 0187F            l279 017DF            l199 011E7  
          _P32 000B2            _P24 000A4            _P16 00096  
          l376 01F0C            l368 01E75            l296 0192A  
          l288 01952            _P33 000B3            _P25 000A5  
          _P17 00097            l377 01F20            l369 01F48  
          l297 0193E            l289 0189E            _P34 000B4  
          _P26 000A6            l378 01F34            l298 01952  
          _P35 000B5            _P27 000A7            l379 01F48  
          l299 01F48            _P36 000B6            _P37 000B7  
          _IE0 00089            _IE1 0008B            _CT2 000C9  
          _ET0 000A9            _ET1 000AB            _ET2 000AD  
          _EX0 000A8            _EX1 000AA            _DPH 00083  
          _DPL 00082            _IT0 00088            _IT1 0008A  
          _RB8 0009A            u100 004B2            u101 004B0  
          u110 004DE            u111 004DC            u200 00660  
          u120 0050A            u201 0065E            u121 00508  
          u210 00674            u130 0053A            u211 00672  
          u131 00538            _TF0 0008D            _TB8 0009B  
          u300 0071F            u220 00688            u140 00550  
          _TF1 0008F            u301 0071D            u109 0030D  
          u221 00686            u141 0054E            _TF2 000CF  
          u310 00733            u230 0069C            u150 005D5  
          u311 00731            u119 00306            u231 0069A  
          u151 005D3            _TH0 0008C            u400 007E8  
          u320 00747            u240 006B0            u160 005FF  
          _TH1 0008D            u401 007E5            u209 00306  
          u321 00745            u129 002FF            u241 006AE  
          u161 005FD            _TH2 000CD            u410 007F2  
          u330 0075B            u250 006C4            u170 00637  
          u411 007F0            u219 002FF            u331 00759  
          u139 00337            u251 006C2            u171 00634  
          u500 008A6            u420 00806            u340 0076F  
          u260 006D8            u180 00642            u501 008A4  
          u309 002FF            u421 00804            u229 002F8  
          u341 0076D            u149 00330            u261 006D6  
          u181 0063F            _SM0 0009F            u510 008BB  
          u430 0081A            u350 00783            u270 006EC  
          u190 0064C            _SM1 0009E            u511 008B8  
          u319 002F8            u431 00818            u239 00330  
          u351 00781            u159 00329            u271 006EA  
          u191 0064A            _TL0 0008A            _SM2 0009D  
          _PT0 000B9            u600 00965            u520 008C5  
          u440 0082E            u360 00797            u280 00700  
          _TL1 0008B            _PT1 000BB            u601 00963  
          u409 002F8            u521 008C3            u329 002D5  
          u441 0082C            u249 00329            u361 00795  
          u169 00322            u281 006FE            _TL2 000CC  
          _PT2 000BD            u610 00979            u530 008D9  
          u450 00842            u370 007AB            u290 00715  
          u611 00977            u419 002D5            u531 008D7  
          u339 00329            u451 00840            u259 00322  
          u371 007A9            u179 0031B            u291 00712  
          u700 00A24            u620 0098E            u540 008ED  
          u460 00856            u380 007BF            u509 002D5  
          u701 00A22            u621 0098B            u429 002C0  
          u541 008EB            u349 00322            u461 00854  
          u269 0031B            u381 007BD            u189 00314  
          _RS0 000D3            u710 00A38            u630 00998  
          u550 00901            u470 0086A            u390 007D3  
          _RS1 000D4            u519 002C0            u711 00A36  
          u439 00322            u631 00996            u551 008FF  
          u359 0031B            u471 00868            u279 00314  
          u391 007D1            u199 0030D            _REN 0009C  
          _PX0 000B8            u800 00AE3            u720 00A4C  
          u640 009AC            u560 00915            u480 0087E  
          _PX1 000BA            u609 002C0            u801 00AE1  
          u529 002A4            u721 00A4A            u449 0031B  
          u641 009AA            u561 00913            u369 00314  
          u481 0087C            u289 0030D            u810 00AF7  
          u730 00A61            u650 009C0            u570 00929  
          u490 00892            u619 002A4            u811 00AF5  
          u539 0031B            u731 00A5E            u459 00314  
          u651 009BE            u571 00927            u379 0030D  
          u491 00890            u299 00306            _TR0 0008C  
          u900 00BA2            u820 00B0B            u740 00A6B  
          u660 009D4            u580 0093D            _TR1 0008E  
          u709 002A4            u901 00BA0            u629 0028F  
          u821 00B09            u549 00314            u741 00A69  
          u469 0030D            u661 009D2            u581 0093B  
          u389 00306            _TR2 000CA            u910 00BB6  
          u830 00B1F            u750 00A7F            u670 009E8  
          u590 00951            u719 0028F            u911 00BB4  
          u639 00314            u831 00B1D            u559 0030D  
          u751 00A7D            u479 00306            u671 009E6  
          u591 0094F            u399 002FF            u920 00BCA  
          u840 00B34            u760 00A93            u680 009FC  
          u809 0028F            u729 00273            u921 00BC8  
          u649 0030D            u841 00B31            u569 00306  
          u761 00A91            u489 002FF            u681 009FA  
          u930 00BDE            u850 00B3E            u770 00AA7  
          u690 00A10            u819 00273            u739 0030D  
          u931 00BDC            u659 00306            u851 00B3C  
          u579 002FF            u771 00AA5            u499 002F8  
          u691 00A0E            u940 00BF2            u860 00B52  
          u780 00ABB            u909 0023B            u829 00250  
          u749 00306            u941 00BF0            u669 002FF  
          u861 00B50            u589 002F8            u781 00AB9  
          u950 00C07            u870 00B66            u790 00ACF  
          u919 0022D            u839 0033E            u759 002FF  
          u951 00C04            u679 002F8            u871 00B64  
          u599 002D5            u791 00ACD            u960 00C11  
          u880 00B7A            u929 00211            u849 002DC  
          u769 002F8            u961 00C0F            u689 002D5  
          u881 00B78            u970 00C25            u890 00B8E  
          u939 00337            u859 002C7            u779 002D5  
          u971 00C23            u699 002C0            u891 00B8C  
          u980 00C39            u949 0033E            u869 002AB  
          u789 002C0            u981 00C37            u990 00C4D  
          u959 002DC            u879 00296            u799 002A4  
          u991 00C4B            u969 002C7            u889 0027A  
          u979 002AB            u899 00257            _RXD 000B0  
          _PSW 000D0            u989 00296            u999 0027A  
          _TXD 000B1        _P0_BITS 00080        _P1_BITS 00090  
      _P2_BITS 000A0        _P3_BITS 000B0        _IE_BITS 000A8  
     _ACC_BITS 000E0     _T2CON_BITS 000C8        _IP_BITS 000B8  
         f1590 00348           f1591 01F4C           f1592 00000  
         _ACC0 000E0           _ACC1 000E1           _ACC2 000E2  
         _ACC3 000E3           _ACC4 000E4           _ACC5 000E5  
         _ACC6 000E6           _ACC7 000E7  stack_internal 00001  
         u1000 00C61           u1001 00C5F           u1010 00C75  
         u1011 00C73           u1100 00D17           u1020 00C89  
         u1101 00D15           u1021 00C87           u1110 00D2B  
         u1030 00C9D           u1111 00D29           u1031 00C9B  
         u2000 013CE           u1200 00DD6           u1120 00D3F  
         u1040 00CB1           u2001 013CC           u1009 00257  
         u1201 00DD4           u1121 00D3D           u1041 00CAF  
         u2010 013E2           u1210 00DEA           u1130 00D53  
         u1050 00CC5           u2011 013E0           u1019 0023B  
         u1211 00DE8           u1131 00D51           u1051 00CC3  
         u2100 0148D           u2020 013F6           u1300 00E95  
         u1220 00DFE           u1140 00D67           u1060 00CDA  
         u2101 0148B           u2021 013F4           u1109 0027A  
         u1301 00E93           u1029 0022D           u1221 00DFC  
         u1141 00D65           u1061 00CD7           _EXF2 000CE  
         u2110 014A1           u2030 0140A           u1310 00EA9  
         u1230 00E12           u1150 00D7B           u1070 00CE5  
         u2111 0149F           u2031 01408           u1119 00257  
         u1311 00EA7           u1039 00330           u1231 00E10  
         u1151 00D79           u1071 00CE2           u3000 01B42  
         u2200 0154C           u2120 014B5           u2040 0141E  
         u1400 00F5E           u1320 00EBD           u1240 00E26  
         u1160 00D8F           u1080 00CEF           u3001 01B40  
         u2009 00288           u2201 0154A           u2121 014B3  
         u2041 0141C           u1209 00296           u1401 00F5B  
         u1129 0023B           u1321 00EBB           u1049 00337  
         u1241 00E24           u1161 00D8D           u1081 00CED  
         _T2EX 00091           u3010 01B56           u2210 01560  
         u2130 014C9           u2050 01432           u1410 00F68  
         u1330 00ED1           u1250 00E3A           u1170 00DA3  
         u1090 00D03           u3011 01B54           u2019 0021F  
         u2211 0155E           u2131 014C7           u2051 01430  
         u1219 0027A           u1139 00329           u1411 00F66  
         u1331 00ECF           u1059 0033E           u1251 00E38  
         u1171 00DA1           u1091 00D01           u3100 01C0B  
         u3020 01B6A           u2300 01615           u2220 01574  
         u2140 014DD           u2060 01446           u1500 0101C  
         u1420 00F7C           u1340 00EE5           u1260 00E4E  
         u1180 00DB8           u3101 01C08           u3021 01B68  
         u2109 002EA           u2029 002B9           u2301 01612  
         u2221 01572           u2141 014DB           u2061 01444  
         u1309 002AB           u1229 00257           u1501 0101A  
         u1149 00330           u1421 00F7A           u1341 00EE3  
         u1069 002DC           u1261 00E4C           u1181 00DB5  
         u3110 01C15           u3030 01B7E           u2310 0161F  
         u2230 01588           u2150 014F1           u2070 0145A  
         u1510 01031           u1430 00F90           u1350 00EF9  
         u1270 00E62           u1190 00DC2           u3111 01C13  
         u3031 01B7C           u2119 00265           u2039 00249  
         u2311 0161D           u2231 01586           u2151 014EF  
         u2071 01458           u1319 00296           u1239 00322  
         u1511 0102E           u1159 00337           u1431 00F8E  
         u1351 00EF7           u1079 002C7           u1271 00E60  
         u1191 00DC0           u3200 01CC9           u3120 01C29  
         u3040 01B92           u2400 016D3           u2320 01633  
         u2240 0159C           u2160 01505           u2080 0146F  
         u1600 010DB           u1520 0103B           u1440 00FA4  
         u1360 00F0D           u1280 00E76           u3009 001A8  
         u3201 01CC7           u3121 01C27           u3041 01B90  
         u2209 00249           u2129 002E3           u2049 0033E  
         u2401 016D1           u2321 01631           u2241 0159A  
         u2161 01503           u2081 0146C           u1409 002C7  
         u1329 0027A           u1601 010D9           u1249 00329  
         u1521 01039           u1169 0033E           u1441 00FA2  
         u1361 00F0B           u1089 002AB           u1281 00E74  
         u3210 01CDE           u3130 01C3D           u3050 01BA6  
         u2410 016E8           u2330 01647           u2250 015B0  
         u2170 01519           u2090 01479           u1610 010EF  
         u1530 0104F           u1450 00FB8           u1370 00F21  
         u1290 00E8B           u3019 001EE           u3211 01CDB  
         u3131 01C3B           u3051 01BA4           u2219 002B2  
         u2139 0025E           u2059 0031B           u2411 016E5  
         u2331 01645           u2251 015AE           u2171 01517  
         u2091 01477           u1419 002AB           u1339 0031B  
         u1611 010ED           u1259 00330           u1531 0104D  
         u1179 002DC           u1451 00FB6           u1371 00F1F  
         u1099 00296           u1291 00E88           u3300 01D88  
         u3220 01CE8           u3140 01C51           u3060 01BBA  
         u2500 01792           u2420 016F2           u2340 0165B  
         u2260 015C4           u2180 0152D           u1700 0119A  
         u1620 01104           u1540 01063           u1460 00FCC  
         u1380 00F35           u3029 0012A           u3301 01D86  
         u3221 01CE6           u3141 01C4F           u3061 01BB8  
         u2309 002B2           u2229 00218           u2149 0033E  
         u2501 01790           u2069 002F8           u2421 016F0  
         u2341 01659           u2261 015C2           u2181 0152B  
         u1509 002DC           u1429 00296           u1701 01198  
         u1349 00322           u1621 01101           u1269 00337  
         u1541 01061           u1189 002C7           u1461 00FCA  
         u1381 00F33           u3310 01D9C           u3230 01CFC  
         u3150 01C65           u3070 01BCE           u2510 017A6  
         u2430 01706           u2350 0166F           u2270 015D8  
         u2190 01542           u1710 011AE           u1630 0110E  
         u1550 01077           u1470 00FE0           u1390 00F49  
         u3039 00337           u3311 01D9A           u3231 01CFA  
         u3151 01C63           u3071 01BCC           u2319 0020A  
         u2239 00281           u2159 00314           u2511 017A4  
         u2079 00273           u2431 01704           u2351 0166D  
         u2271 015D6           u2191 0153F           u1519 002C7  
         u1439 00314           u1711 011AC           u1359 00329  
         u1631 0110C           u1279 0033E           u1551 01075  
         u1199 002AB           u1471 00FDE           u1391 00F47  
         _INT0 000B2           u3400 01E47           u3320 01DB1  
         u3240 01D10           u3160 01C79           u3080 01BE2  
         u2600 01851           u2520 017BB           u2440 0171A  
         u2360 01683           u2280 015EC           u1800 01259  
         u1720 011C2           u1640 01122           u1560 0108B  
         u1480 00FF4           _INT1 000B3           u3049 00146  
         u3401 01E45           u3321 01DAE           u3241 01D0E  
         u3161 01C77           u3081 01BE0           u2409 001BD  
         u2329 00242           u2249 0033E           u2601 0184F  
         u2169 002C0           u2521 017B8           u2089 002F1  
         u2441 01718           u2361 01681           u2281 015EA  
         u1609 0033E           u1529 002AB           u1801 01257  
         u1449 0031B           u1721 011C0           u1369 00330  
         u1641 01120           u1289 002DC           u1561 01089  
         u1481 00FF2           u3410 01E5B           u3330 01DBB  
         u3250 01D24           u3170 01C8D           u3090 01BF6  
         u2610 01865           u2530 017C5           u2450 0172E  
         u2370 01697           u2290 01600           u1810 0126D  
         u1730 011D7           u1650 01136           u1570 0109F  
         u1490 01008           u3059 00162           u3411 01E59  
         u3331 01DB9           u3251 01D22           u3171 01C8B  
         u3091 01BF4           u2419 00203           u2339 0029D  
         u2259 0030D           u2611 01863           u2179 00226  
         u2531 017C3           u2099 0026C           u2451 0172C  
         u2371 01695           u2291 015FE           u1619 002DC  
         u1539 0030D           u1811 0126B           u1459 00322  
         u1731 011D4           u1379 00337           u1651 01134  
         u1299 002C7           u1571 0109D           u1491 01006  
         u3500 01F06           u3420 01E6F           u3340 01DCF  
         u3260 01D38           u3180 01CA1           u2700 01910  
         u2620 01879           u2540 017D9           u2460 01742  
         u2380 016AB           u1900 01318           u1820 01281  
         u1740 011E1           u1660 0114A           u1580 010B3  
         u3501 01F04           u3421 01E6D           u3341 01DCD  
         u3261 01D36           u3181 01C9F           u2509 001E7  
         u2429 00131           u2349 0013F           u2701 0190E  
         u2269 0028F           u2621 01877           u2189 00288  
         u2541 017D7           u2461 01740           u2381 016A9  
         u1709 00314           u1629 002C7           u1901 01316  
         u1549 00314           u1821 0127F           u1469 00329  
         u1741 011DF           u1389 0033E           u1661 01148  
         u1581 010B1           u3510 01F1A           u3430 01E84  
         u3350 01DE3           u3270 01D4C           u3190 01CB5  
         u2710 01924           u2630 0188E           u2550 017ED  
         u2470 01756           u2390 016BF           u1910 0132C  
         u1830 01295           u1750 011F5           u1670 0115E  
         u1590 010C7           u3511 01F18           u3431 01E81  
         u3351 01DE1           u3271 01D4A           u3191 01CB3  
         u2519 001F5           u2439 00100           u2359 0033E  
         u2711 01922           u2279 002CE           u2631 0188B  
         u2199 002EA           u2551 017EB           u2471 01754  
         u2391 016BD           u1719 0030D           u1639 0033E  
         u1911 0132A           u1559 0031B           u1831 01293  
         u1479 00330           u1751 011F3           u1399 002DC  
         u1671 0115C           u1591 010C5           u3520 01F2E  
         u3440 01E8E           u3360 01DF7           u3280 01D60  
         u2800 019C4           u2720 01938           u2640 01898  
         u2560 01801           u2480 0176A           u1920 01340  
         u1840 012AA           u1760 01209           u1680 01172  
         u3521 01F2C           u3441 01E8C           u3361 01DF5  
         u3281 01D5E           u2609 001AF           u2529 00193  
         u2449 0015B           u2801 019C2           u2369 0013F  
         u2721 01936           u2289 0021F           u2641 01896  
         u2561 017FF           u2481 01768           u1809 002C0  
         u1729 00306           u1649 0033E           u1921 0133E  
         u1569 00322           u1841 012A7           u1489 00337  
         u1761 01207           u1681 01170           u3530 01F42  
         u3450 01EA2           u3370 01E0B           u3290 01D74  
         u2810 019D8           u2730 0194C           u2650 018AC  
         u2570 01815           u2490 0177E           u1930 01354  
         u1850 012B4           u1770 0121D           u1690 01186  
         u3531 01F40           u3451 01EA0           u3371 01E09  
         u3291 01D72           u2619 001CB           u2539 00107  
         u2459 001A1           u2811 019D6           u2379 00337  
         u2731 0194A           u2299 00265           u2651 018AA  
         u2571 01813           u2491 0177C           u1819 0028F  
         u1739 002FF           u1659 00337           u1931 01352  
         u1579 00329           u1851 012B2           u1499 0033E  
         u1771 0121B           u1691 01184           u3460 01EB6  
         u3380 01E1F           u2900 01A83           u2820 019EC  
         u2740 01961           u2660 018C0           u2580 01829  
         u1940 01368           u1860 012C8           u1780 01231  
         u3461 01EB4           u3381 01E1D           u2709 00337  
         u2629 001E7           u2549 001BD           u2901 01A81  
         u2469 0013F           u2821 019EA           u2389 001E7  
         u2741 0195E           u2661 018BE           u2581 01827  
         u1909 00226           u1829 00250           u1749 0033E  
         u1669 00330           u1941 01366           u1589 00330  
         u1861 012C6           u1781 0122F           u3470 01ECA  
         u3390 01E33           u2910 01A97           u2830 01A00  
         u2750 0196B           u2670 018D4           u2590 0183D  
         u1950 0137D           u1870 012DC           u1790 01245  
         u3471 01EC8           u3391 01E31           u2719 001C4  
         u2639 0010E           u2559 0019A           u2911 01A95  
         u2479 00330           u2831 019FE           u2399 00193  
         u2751 01969           u2671 018D2           u2591 0183B  
         u1919 002CE           u1839 00226           u1759 00330  
         u1679 00329           u1951 0137A           u1599 00337  
         u1871 012DA           u1791 01243           u3480 01EDE  
         u2920 01AAB           u2840 01A14           u2760 01975  
         u2680 018E8           u1960 01387           u1880 012F0  
         u3481 01EDC           u2809 001B6           u2729 00170  
         u2649 0014D           u2569 0013F           u2921 01AA9  
         u2489 00337           u2841 01A12           u2761 01973  
         u2681 018E6           u1929 00288           u1849 0033E  
         u1769 00322           u1689 00322           u1961 01385  
         u1881 012EE           u3490 01EF2           u2930 01ABF  
         u2850 01A28           u2770 01992           u2690 018FC  
         u1970 0139C           u1890 01304           u3491 01EF0  
         u2819 00337           u2739 00115           u2659 00193  
         u2579 00329           u2931 01ABD           u2499 00170  
         u2851 01A26           u2771 0198F           u2691 018FA  
         u1939 00234           u1859 00329           u1779 00314  
         u1699 0031B           u1971 01399           u1891 01302  
         u2940 01AD3           u2860 01A3C           u2780 0199C  
         u1980 013A6           u2909 001E0           u2829 00138  
         u2749 001E7           u2669 0013F           u2589 001E0  
         u2941 01AD1           u2861 01A3A           u2781 0199A  
         u1949 0033E           u1869 00314           u1789 00306  
         u1981 013A4           u2950 01AE7           u2870 01A50  
         u2790 019B0           u1990 013BA           u2919 001FC  
         u2839 0011C           u2759 0017E           u2679 00322  
         u2599 00337           u2951 01AE5           u2871 01A4E  
         u2791 019AE           u1959 00322           u1879 002FF  
         u1799 002F8           u1991 013B8           u2960 01AFB  
         u2880 01A65           u2929 00337           u2849 00154  
         u2769 0013F           u2689 00330           u2961 01AF9  
         u2881 01A62           u1969 00306           u1889 002C0  
         u2970 01B0F           u2890 01A6F           u2939 00123  
         u2859 00177           u2779 0031B           u2699 0018C  
         u2971 01B0D           u2891 01A6D           u1979 002C0  
         u1899 00273           u2980 01B23           u2949 001AF  
         u2869 0013F           u2789 001D9           u2981 01B21  
         u1989 00250           u2990 01B38           u2959 00170  
         u2879 00314           u2799 00169           u2991 01B35  
         u1999 002F1           _PCON 00087           u2969 0013F  
         u2889 00329           u2979 0030D           u2899 00330  
         u2989 001D2           _RCLK 000CD           u2999 00185  
         _TCLK 000CC           _SCON 00098           _SBUF 00099  
         _TCON 00088           _TMOD 00089           _main 00345  
     _PSW_BITS 000D0          _CPRL2 000C8          _T2CON 000C8  
        _EXEN2 000CB        ldc_byte 00003      _PCON_BITS 00087  
    _SCON_BITS 00098      _TCON_BITS 00088      _TMOD_BITS 00089  
